Component: ARM Compiler 5.06 update 6 (build 750) Tool: armlink [4d35ed]

==============================================================================

Section Cross References

    main.o(i.hal_init) refers to common.o(i.hal_system_init) for hal_system_init
    main.o(i.hal_init) refers to clock.o(i.hal_rtc_clock_config) for hal_rtc_clock_config
    main.o(i.hal_init) refers to gpio.o(i.hal_gpio_init) for hal_gpio_init
    main.o(i.hal_init) refers to my_printf.o(i.phy_printf_init) for phy_printf_init
    main.o(i.hal_init) refers to my_printf.o(i.phy_printf) for phy_printf
    main.o(i.hal_init) refers to rf_phy_driver.o(.data) for g_system_clk
    main.o(i.hal_rfphy_init) refers to patch.o(i.hal_rom_code_ini) for hal_rom_code_ini
    main.o(i.hal_rfphy_init) refers to gpio.o(i.hal_gpio_pull_set) for hal_gpio_pull_set
    main.o(i.hal_rfphy_init) refers to common.o(i.subWriteReg) for subWriteReg
    main.o(i.hal_rfphy_init) refers to main.o(i.__NVIC_SetPriority) for __NVIC_SetPriority
    main.o(i.hal_rfphy_init) refers to patch.o(.data) for pGlobal_config
    main.o(i.hal_rfphy_init) refers to rf_phy_driver.o(.data) for g_rfPhyTxPower
    main.o(i.main) refers to patch.o(i.init_config) for init_config
    main.o(i.main) refers to pwrmgr.o(i.hal_pwrmgr_init) for hal_pwrmgr_init
    main.o(i.main) refers to main.o(i.hal_rfphy_init) for hal_rfphy_init
    main.o(i.main) refers to main.o(i.hal_init) for hal_init
    main.o(i.main) refers to ota_protocol.o(i.otaProtocol_BootMode) for otaProtocol_BootMode
    main.o(i.main) refers to ota_main.o(i.ota_main) for ota_main
    main.o(i.main) refers to rf_phy_driver.o(.data) for g_system_clk
    devinfoservice.o(i.DevInfo_AddService) refers to gattservapp.o(i.GATTServApp_RegisterService) for GATTServApp_RegisterService
    devinfoservice.o(i.DevInfo_AddService) refers to devinfoservice.o(.constdata) for .constdata
    devinfoservice.o(i.DevInfo_AddService) refers to devinfoservice.o(.data) for .data
    devinfoservice.o(i.DevInfo_GetParameter) refers to devinfoservice.o(.data) for .data
    devinfoservice.o(i.DevInfo_GetParameter) refers to devinfoservice.o(.constdata) for .constdata
    devinfoservice.o(i.DevInfo_SetParameter) refers to devinfoservice.o(.data) for .data
    devinfoservice.o(i.devInfo_ReadAttrCB) refers to devinfoservice.o(.data) for .data
    devinfoservice.o(i.devInfo_ReadAttrCB) refers to devinfoservice.o(.constdata) for .constdata
    devinfoservice.o(.constdata) refers to devinfoservice.o(.constdata) for devInfoServUUID
    devinfoservice.o(.constdata) refers to devinfoservice.o(i.devInfo_ReadAttrCB) for devInfo_ReadAttrCB
    devinfoservice.o(.data) refers to devinfoservice.o(.constdata) for devInfoService
    devinfoservice.o(.data) refers to devinfoservice.o(.data) for devInfoSystemIdProps
    devinfoservice.o(.data) refers to devinfoservice.o(.constdata) for devInfoSystemIdUUID
    devinfoservice.o(.data) refers to devinfoservice.o(.data) for devInfoModelNumberProps
    devinfoservice.o(.data) refers to devinfoservice.o(.constdata) for devInfoModelNumberUUID
    devinfoservice.o(.data) refers to devinfoservice.o(.constdata) for devInfoModelNumber
    devinfoservice.o(.data) refers to devinfoservice.o(.data) for devInfoSerialNumberProps
    devinfoservice.o(.data) refers to devinfoservice.o(.constdata) for devInfoSerialNumberUUID
    devinfoservice.o(.data) refers to devinfoservice.o(.data) for devInfoFirmwareRevProps
    devinfoservice.o(.data) refers to devinfoservice.o(.constdata) for devInfoFirmwareRevUUID
    devinfoservice.o(.data) refers to devinfoservice.o(.data) for devInfoHardwareRevProps
    devinfoservice.o(.data) refers to devinfoservice.o(.constdata) for devInfoHardwareRevUUID
    devinfoservice.o(.data) refers to devinfoservice.o(.data) for devInfoSoftwareRevProps
    devinfoservice.o(.data) refers to devinfoservice.o(.constdata) for devInfoSoftwareRevUUID
    devinfoservice.o(.data) refers to devinfoservice.o(.data) for devInfoMfrNameProps
    devinfoservice.o(.data) refers to devinfoservice.o(.constdata) for devInfoMfrNameUUID
    devinfoservice.o(.data) refers to devinfoservice.o(.data) for devInfo11073CertProps
    devinfoservice.o(.data) refers to devinfoservice.o(.constdata) for devInfo11073CertUUID
    devinfoservice.o(.data) refers to devinfoservice.o(.data) for devInfoPnpIdProps
    devinfoservice.o(.data) refers to devinfoservice.o(.constdata) for devInfoPnpIdUUID
    gattservapp.o(i.GATTServApp_AddService) refers to gattservapp.o(i.GATTServApp_RegisterService) for GATTServApp_RegisterService
    gattservapp.o(i.GATTServApp_AddService) refers to gattservapp.o(.constdata) for .constdata
    gattservapp.o(i.GATTServApp_AddService) refers to gattservapp.o(.data) for .data
    gattservapp.o(i.GATTServApp_DelService) refers to gattservapp.o(i.GATTServApp_DeregisterService) for GATTServApp_DeregisterService
    gattservapp.o(i.GATTServApp_DelService) refers to gattservapp.o(.data) for .data
    gattservapp.o(i.GATTServApp_DeregisterService) refers to gattservapp.o(.data) for .data
    gattservapp.o(i.GATTServApp_GetParameter) refers to gattservapp.o(.data) for .data
    gattservapp.o(i.GATTServApp_Init) refers to gattservapp.o(i.GATTServApp_InitCharCfg) for GATTServApp_InitCharCfg
    gattservapp.o(i.GATTServApp_Init) refers to gattservapp.o(i.gattServApp_SetNumPrepareWrites) for gattServApp_SetNumPrepareWrites
    gattservapp.o(i.GATTServApp_Init) refers to gattservapp.o(.data) for .data
    gattservapp.o(i.GATTServApp_Init) refers to gattservapp.o(i.gattServApp_HandleConnStatusCB) for gattServApp_HandleConnStatusCB
    gattservapp.o(i.GATTServApp_InitCharCfg) refers to gattservapp.o(i.gattServApp_FindCharCfgItem) for gattServApp_FindCharCfgItem
    gattservapp.o(i.GATTServApp_ProcessCCCWriteReq) refers to gattservapp.o(i.GATTServApp_ReadCharCfg) for GATTServApp_ReadCharCfg
    gattservapp.o(i.GATTServApp_ProcessCCCWriteReq) refers to gattservapp.o(i.GATTServApp_WriteCharCfg) for GATTServApp_WriteCharCfg
    gattservapp.o(i.GATTServApp_ProcessCCCWriteReq) refers to gattservapp.o(i.GATTServApp_SendCCCUpdatedEvent) for GATTServApp_SendCCCUpdatedEvent
    gattservapp.o(i.GATTServApp_ProcessCharCfg) refers to gattservapp.o(i.GATTServApp_FindAttr) for GATTServApp_FindAttr
    gattservapp.o(i.GATTServApp_ProcessCharCfg) refers to gattservapp.o(i.GATTServApp_ReadAttr) for GATTServApp_ReadAttr
    gattservapp.o(i.GATTServApp_ProcessEvent) refers to gattservapp.o(i.gattServApp_ProcessMsg) for gattServApp_ProcessMsg
    gattservapp.o(i.GATTServApp_ProcessEvent) refers to gattservapp.o(.data) for .data
    gattservapp.o(i.GATTServApp_ReadAttr) refers to gattservapp.o(i.gattServApp_FindAuthorizeAttrCB) for gattServApp_FindAuthorizeAttrCB
    gattservapp.o(i.GATTServApp_ReadAttr) refers to gattservapp.o(i.gattServApp_FindServiceCBs) for gattServApp_FindServiceCBs
    gattservapp.o(i.GATTServApp_ReadAttr) refers to gattservapp.o(i.GATTServApp_ReadCharCfg) for GATTServApp_ReadCharCfg
    gattservapp.o(i.GATTServApp_ReadCharCfg) refers to gattservapp.o(i.gattServApp_FindCharCfgItem) for gattServApp_FindCharCfgItem
    gattservapp.o(i.GATTServApp_RegisterForMsg) refers to gattservapp.o(.data) for .data
    gattservapp.o(i.GATTServApp_RegisterService) refers to gattservapp.o(.data) for .data
    gattservapp.o(i.GATTServApp_SendCCCUpdatedEvent) refers to gattservapp.o(.data) for .data
    gattservapp.o(i.GATTServApp_SendServiceChangedInd) refers to gattservapp.o(i.GATTServApp_ReadCharCfg) for GATTServApp_ReadCharCfg
    gattservapp.o(i.GATTServApp_SendServiceChangedInd) refers to gattservapp.o(.data) for .data
    gattservapp.o(i.GATTServApp_SetParameter) refers to gattservapp.o(i.gattServApp_SetNumPrepareWrites) for gattServApp_SetNumPrepareWrites
    gattservapp.o(i.GATTServApp_SetParameter) refers to gattservapp.o(.data) for .data
    gattservapp.o(i.GATTServApp_UpdateCharCfg) refers to gattservapp.o(i.GATTServApp_WriteAttr) for GATTServApp_WriteAttr
    gattservapp.o(i.GATTServApp_WriteAttr) refers to gattservapp.o(i.gattServApp_FindServiceCBs) for gattServApp_FindServiceCBs
    gattservapp.o(i.GATTServApp_WriteCharCfg) refers to gattservapp.o(i.gattServApp_FindCharCfgItem) for gattServApp_FindCharCfgItem
    gattservapp.o(i.gattServApp_FindAuthorizeAttrCB) refers to gattservapp.o(i.gattServApp_FindServiceCBs) for gattServApp_FindServiceCBs
    gattservapp.o(i.gattServApp_FindPrepareWriteQ) refers to gattservapp.o(.data) for .data
    gattservapp.o(i.gattServApp_FindServiceCBs) refers to gattservapp.o(.data) for .data
    gattservapp.o(i.gattServApp_HandleConnStatusCB) refers to gattservapp.o(i.gattServApp_FindPrepareWriteQ) for gattServApp_FindPrepareWriteQ
    gattservapp.o(i.gattServApp_HandleConnStatusCB) refers to gattservapp.o(i.GATTServApp_InitCharCfg) for GATTServApp_InitCharCfg
    gattservapp.o(i.gattServApp_HandleConnStatusCB) refers to gattservapp.o(.data) for .data
    gattservapp.o(i.gattServApp_ProcessExecuteWriteReq) refers to gattservapp.o(i.gattServApp_FindPrepareWriteQ) for gattServApp_FindPrepareWriteQ
    gattservapp.o(i.gattServApp_ProcessExecuteWriteReq) refers to gattservapp.o(i.GATTServApp_WriteAttr) for GATTServApp_WriteAttr
    gattservapp.o(i.gattServApp_ProcessExecuteWriteReq) refers to gattservapp.o(.data) for .data
    gattservapp.o(i.gattServApp_ProcessFindByTypeValueReq) refers to gattservapp.o(i.GATTServApp_ReadAttr) for GATTServApp_ReadAttr
    gattservapp.o(i.gattServApp_ProcessFindByTypeValueReq) refers to gattservapp.o(.bss) for .bss
    gattservapp.o(i.gattServApp_ProcessFindByTypeValueReq) refers to gattservapp.o(.data) for .data
    gattservapp.o(i.gattServApp_ProcessMsg) refers to gattservapp.o(i.gattServApp_ProcessFindByTypeValueReq) for gattServApp_ProcessFindByTypeValueReq
    gattservapp.o(i.gattServApp_ProcessMsg) refers to gattservapp.o(i.gattServApp_ProcessReadByTypeReq) for gattServApp_ProcessReadByTypeReq
    gattservapp.o(i.gattServApp_ProcessMsg) refers to gattservapp.o(i.GATTServApp_ReadAttr) for GATTServApp_ReadAttr
    gattservapp.o(i.gattServApp_ProcessMsg) refers to gattservapp.o(i.gattServApp_ProcessReadMultiReq) for gattServApp_ProcessReadMultiReq
    gattservapp.o(i.gattServApp_ProcessMsg) refers to gattservapp.o(i.gattServApp_ProcessReadByGrpTypeReq) for gattServApp_ProcessReadByGrpTypeReq
    gattservapp.o(i.gattServApp_ProcessMsg) refers to gattservapp.o(i.gattServApp_ProcessWriteReq) for gattServApp_ProcessWriteReq
    gattservapp.o(i.gattServApp_ProcessMsg) refers to gattservapp.o(i.gattServApp_ProcessPrepareWriteReq) for gattServApp_ProcessPrepareWriteReq
    gattservapp.o(i.gattServApp_ProcessMsg) refers to gattservapp.o(i.gattServApp_ProcessExecuteWriteReq) for gattServApp_ProcessExecuteWriteReq
    gattservapp.o(i.gattServApp_ProcessMsg) refers to gattservapp.o(.bss) for .bss
    gattservapp.o(i.gattServApp_ProcessPrepareWriteReq) refers to gattservapp.o(i.gattServApp_FindAuthorizeAttrCB) for gattServApp_FindAuthorizeAttrCB
    gattservapp.o(i.gattServApp_ProcessPrepareWriteReq) refers to gattservapp.o(i.gattServApp_FindPrepareWriteQ) for gattServApp_FindPrepareWriteQ
    gattservapp.o(i.gattServApp_ProcessPrepareWriteReq) refers to gattservapp.o(.data) for .data
    gattservapp.o(i.gattServApp_ProcessReadByGrpTypeReq) refers to gattservapp.o(i.GATTServApp_ReadAttr) for GATTServApp_ReadAttr
    gattservapp.o(i.gattServApp_ProcessReadByGrpTypeReq) refers to gattservapp.o(.bss) for .bss
    gattservapp.o(i.gattServApp_ProcessReadByGrpTypeReq) refers to gattservapp.o(.data) for .data
    gattservapp.o(i.gattServApp_ProcessReadByTypeReq) refers to gattservapp.o(i.GATTServApp_ReadAttr) for GATTServApp_ReadAttr
    gattservapp.o(i.gattServApp_ProcessReadByTypeReq) refers to gattservapp.o(.bss) for .bss
    gattservapp.o(i.gattServApp_ProcessReadByTypeReq) refers to gattservapp.o(.data) for .data
    gattservapp.o(i.gattServApp_ProcessReadMultiReq) refers to gattservapp.o(i.GATTServApp_ReadAttr) for GATTServApp_ReadAttr
    gattservapp.o(i.gattServApp_ProcessReadMultiReq) refers to gattservapp.o(.bss) for .bss
    gattservapp.o(i.gattServApp_ProcessReadMultiReq) refers to gattservapp.o(.data) for .data
    gattservapp.o(i.gattServApp_ProcessWriteReq) refers to gattservapp.o(i.gattServApp_FindAuthorizeAttrCB) for gattServApp_FindAuthorizeAttrCB
    gattservapp.o(i.gattServApp_ProcessWriteReq) refers to gattservapp.o(i.GATTServApp_WriteAttr) for GATTServApp_WriteAttr
    gattservapp.o(i.gattServApp_SetNumPrepareWrites) refers to gattservapp.o(.data) for .data
    gattservapp.o(i.gattServApp_SetNumPrepareWrites) refers to gattservapp.o(.bss) for .bss
    gattservapp.o(i.gattServApp_WriteAttrCB) refers to gattservapp.o(i.GATTServApp_ProcessCCCWriteReq) for GATTServApp_ProcessCCCWriteReq
    gattservapp.o(.constdata) refers to gattservapp.o(i.gattServApp_WriteAttrCB) for gattServApp_WriteAttrCB
    gattservapp.o(.data) refers to gattservapp.o(.constdata) for gattService
    gattservapp.o(.data) refers to gattservapp.o(.data) for serviceChangedCharProps
    gapgattserver.o(i.GGS_AddService) refers to gattservapp.o(i.GATTServApp_RegisterService) for GATTServApp_RegisterService
    gapgattserver.o(i.GGS_AddService) refers to gapgattserver.o(.constdata) for .constdata
    gapgattserver.o(i.GGS_AddService) refers to gapgattserver.o(.data) for .data
    gapgattserver.o(i.GGS_DelService) refers to gattservapp.o(i.GATTServApp_DeregisterService) for GATTServApp_DeregisterService
    gapgattserver.o(i.GGS_DelService) refers to gapgattserver.o(.data) for .data
    gapgattserver.o(i.GGS_GetParameter) refers to memcpya.o(.text) for __aeabi_memcpy
    gapgattserver.o(i.GGS_GetParameter) refers to gapgattserver.o(.bss) for .bss
    gapgattserver.o(i.GGS_GetParameter) refers to gapgattserver.o(.data) for .data
    gapgattserver.o(i.GGS_RegisterAppCBs) refers to gapgattserver.o(.data) for .data
    gapgattserver.o(i.GGS_SetParameter) refers to memcpya.o(.text) for __aeabi_memcpy
    gapgattserver.o(i.GGS_SetParameter) refers to gapgattserver.o(i.ggs_SetAttrWPermit) for ggs_SetAttrWPermit
    gapgattserver.o(i.GGS_SetParameter) refers to gapgattserver.o(.data) for .data
    gapgattserver.o(i.GGS_SetParameter) refers to gapgattserver.o(.bss) for .bss
    gapgattserver.o(i.ggs_WriteAttrCB) refers to gapgattserver.o(.data) for .data
    gapgattserver.o(.constdata) refers to gapgattserver.o(i.ggs_ReadAttrCB) for ggs_ReadAttrCB
    gapgattserver.o(.constdata) refers to gapgattserver.o(i.ggs_WriteAttrCB) for ggs_WriteAttrCB
    gapgattserver.o(.data) refers to gapgattserver.o(.constdata) for gapService
    gapgattserver.o(.data) refers to gapgattserver.o(.data) for deviceNameCharProps
    gapgattserver.o(.data) refers to gapgattserver.o(.bss) for deviceName
    gapgattserver.o(.data) refers to gapgattserver.o(.data) for appearanceCharProps
    gapgattserver.o(.data) refers to gapgattserver.o(.data) for periConnParamCharProps
    peripheral.o(i.GAPRole_GetParameter) refers to peripheral.o(.data) for .data
    peripheral.o(i.GAPRole_GetParameter) refers to peripheral.o(.bss) for .bss
    peripheral.o(i.GAPRole_Init) refers to peripheral.o(.data) for .data
    peripheral.o(i.GAPRole_Init) refers to peripheral.o(.bss) for .bss
    peripheral.o(i.GAPRole_ProcessEvent) refers to peripheral.o(i.gapRole_ProcessOSALMsg) for gapRole_ProcessOSALMsg
    peripheral.o(i.GAPRole_ProcessEvent) refers to peripheral.o(i.gapRole_startConnUpdate) for gapRole_startConnUpdate
    peripheral.o(i.GAPRole_ProcessEvent) refers to peripheral.o(i.GAPRole_SendUpdateParam) for GAPRole_SendUpdateParam
    peripheral.o(i.GAPRole_ProcessEvent) refers to peripheral.o(i.GAPRole_TerminateConnection) for GAPRole_TerminateConnection
    peripheral.o(i.GAPRole_ProcessEvent) refers to peripheral.o(.data) for .data
    peripheral.o(i.GAPRole_RegisterAppCBs) refers to peripheral.o(.data) for .data
    peripheral.o(i.GAPRole_SendUpdateParam) refers to peripheral.o(i.gapRole_startConnUpdate) for gapRole_startConnUpdate
    peripheral.o(i.GAPRole_SendUpdateParam) refers to peripheral.o(.data) for .data
    peripheral.o(i.GAPRole_SetParameter) refers to peripheral.o(i.gapRole_startConnUpdate) for gapRole_startConnUpdate
    peripheral.o(i.GAPRole_SetParameter) refers to peripheral.o(.data) for .data
    peripheral.o(i.GAPRole_SetParameter) refers to peripheral.o(.bss) for .bss
    peripheral.o(i.GAPRole_StartDevice) refers to gap.o(i.GAP_DeviceInit) for GAP_DeviceInit
    peripheral.o(i.GAPRole_StartDevice) refers to peripheral.o(.data) for .data
    peripheral.o(i.GAPRole_StartDevice) refers to peripheral.o(.bss) for .bss
    peripheral.o(i.GAPRole_TerminateConnection) refers to peripheral.o(.data) for .data
    peripheral.o(i.gapRole_ProcessGAPMsg) refers to ota.o(i.GAPBondMgr_LinkEst) for GAPBondMgr_LinkEst
    peripheral.o(i.gapRole_ProcessGAPMsg) refers to peripheral.o(.data) for .data
    peripheral.o(i.gapRole_ProcessGAPMsg) refers to peripheral.o(.bss) for .bss
    peripheral.o(i.gapRole_ProcessOSALMsg) refers to peripheral.o(i.gapRole_ProcessGAPMsg) for gapRole_ProcessGAPMsg
    peripheral.o(i.gapRole_ProcessOSALMsg) refers to peripheral.o(i.GAPRole_TerminateConnection) for GAPRole_TerminateConnection
    peripheral.o(i.gapRole_ProcessOSALMsg) refers to peripheral.o(.data) for .data
    peripheral.o(i.gapRole_startConnUpdate) refers to peripheral.o(.data) for .data
    heartrateservice.o(i.HeartRate_AddService) refers to gattservapp.o(i.GATTServApp_InitCharCfg) for GATTServApp_InitCharCfg
    heartrateservice.o(i.HeartRate_AddService) refers to gattservapp.o(i.GATTServApp_RegisterService) for GATTServApp_RegisterService
    heartrateservice.o(i.HeartRate_AddService) refers to heartrateservice.o(.data) for .data
    heartrateservice.o(i.HeartRate_AddService) refers to heartrateservice.o(.constdata) for .constdata
    heartrateservice.o(i.HeartRate_GetParameter) refers to heartrateservice.o(.data) for .data
    heartrateservice.o(i.HeartRate_HandleConnStatusCB) refers to gattservapp.o(i.GATTServApp_InitCharCfg) for GATTServApp_InitCharCfg
    heartrateservice.o(i.HeartRate_HandleConnStatusCB) refers to heartrateservice.o(.data) for .data
    heartrateservice.o(i.HeartRate_MeasNotify) refers to gattservapp.o(i.GATTServApp_ReadCharCfg) for GATTServApp_ReadCharCfg
    heartrateservice.o(i.HeartRate_MeasNotify) refers to heartrateservice.o(.data) for .data
    heartrateservice.o(i.HeartRate_Register) refers to heartrateservice.o(.data) for .data
    heartrateservice.o(i.HeartRate_SetParameter) refers to heartrateservice.o(.data) for .data
    heartrateservice.o(i.heartRate_WriteAttrCB) refers to gattservapp.o(i.GATTServApp_ProcessCCCWriteReq) for GATTServApp_ProcessCCCWriteReq
    heartrateservice.o(i.heartRate_WriteAttrCB) refers to heartrateservice.o(.data) for .data
    heartrateservice.o(.constdata) refers to heartrateservice.o(.constdata) for heartRateServUUID
    heartrateservice.o(.constdata) refers to heartrateservice.o(i.heartRate_ReadAttrCB) for heartRate_ReadAttrCB
    heartrateservice.o(.constdata) refers to heartrateservice.o(i.heartRate_WriteAttrCB) for heartRate_WriteAttrCB
    heartrateservice.o(.data) refers to heartrateservice.o(.constdata) for heartRateService
    heartrateservice.o(.data) refers to heartrateservice.o(.data) for heartRateMeasProps
    heartrateservice.o(.data) refers to heartrateservice.o(.constdata) for heartRateMeasUUID
    heartrateservice.o(.data) refers to heartrateservice.o(.data) for heartRateMeas
    heartrateservice.o(.data) refers to heartrateservice.o(.data) for heartRateSensLocProps
    heartrateservice.o(.data) refers to heartrateservice.o(.constdata) for heartRateSensLocUUID
    heartrateservice.o(.data) refers to heartrateservice.o(.data) for heartRateCommandProps
    heartrateservice.o(.data) refers to heartrateservice.o(.constdata) for heartRateCommandUUID
    ota_service.o(i.handleConnStatusCB) refers to gattservapp.o(i.GATTServApp_InitCharCfg) for GATTServApp_InitCharCfg
    ota_service.o(i.handleConnStatusCB) refers to ota_service.o(.data) for .data
    ota_service.o(i.ota_AddService) refers to gattservapp.o(i.GATTServApp_InitCharCfg) for GATTServApp_InitCharCfg
    ota_service.o(i.ota_AddService) refers to gattservapp.o(i.GATTServApp_RegisterService) for GATTServApp_RegisterService
    ota_service.o(i.ota_AddService) refers to my_printf.o(i.phy_printf) for phy_printf
    ota_service.o(i.ota_AddService) refers to ota_service.o(i.handleConnStatusCB) for handleConnStatusCB
    ota_service.o(i.ota_AddService) refers to ota_service.o(.data) for .data
    ota_service.o(i.ota_AddService) refers to ota_service.o(.constdata) for .constdata
    ota_service.o(i.ota_Notify) refers to peripheral.o(i.GAPRole_GetParameter) for GAPRole_GetParameter
    ota_service.o(i.ota_Notify) refers to gattservapp.o(i.GATTServApp_ReadCharCfg) for GATTServApp_ReadCharCfg
    ota_service.o(i.ota_Notify) refers to my_printf.o(i.phy_printf) for phy_printf
    ota_service.o(i.ota_Notify) refers to ota_service.o(.data) for .data
    ota_service.o(i.ota_ReadAttrCB) refers to my_printf.o(i.phy_printf) for phy_printf
    ota_service.o(i.ota_WriteAttrCB) refers to my_printf.o(i.phy_printf) for phy_printf
    ota_service.o(i.ota_WriteAttrCB) refers to gattservapp.o(i.GATTServApp_ProcessCCCWriteReq) for GATTServApp_ProcessCCCWriteReq
    ota_service.o(i.ota_WriteAttrCB) refers to ota_service.o(.data) for .data
    ota_service.o(.constdata) refers to ota_service.o(.constdata) for ota_ServiceUUID
    ota_service.o(.constdata) refers to ota_service.o(i.ota_ReadAttrCB) for ota_ReadAttrCB
    ota_service.o(.constdata) refers to ota_service.o(i.ota_WriteAttrCB) for ota_WriteAttrCB
    ota_service.o(.data) refers to ota_service.o(.constdata) for ota_Service
    ota_service.o(.data) refers to ota_service.o(.data) for ota_CommandProps
    ota_service.o(.data) refers to ota_service.o(.constdata) for ota_CommandUUID
    ota_service.o(.data) refers to ota_service.o(.data) for ota_CommandValue
    ota_service.o(.data) refers to ota_service.o(.data) for ota_ResponseProps
    ota_service.o(.data) refers to ota_service.o(.constdata) for ota_ResponseUUID
    ota_service.o(.data) refers to ota_service.o(.data) for ota_ResponseValue
    ota_service.o(.data) refers to ota_service.o(.data) for ota_DataProps
    ota_service.o(.data) refers to ota_service.o(.constdata) for ota_DataUUID
    ota_service.o(.data) refers to ota_service.o(.data) for ota_DataValue
    ota_protocol.o(i.handle_error) refers to ota_protocol.o(i.response_err) for response_err
    ota_protocol.o(i.handle_error) refers to ota_protocol.o(.bss) for .bss
    ota_protocol.o(i.handle_error) refers to ota_protocol.o(ota_partition_buffer_area) for ota_partition_buffer_area
    ota_protocol.o(i.handle_error_state) refers to ota_protocol.o(i.response_err) for response_err
    ota_protocol.o(i.handle_error_state) refers to ota_protocol.o(.bss) for .bss
    ota_protocol.o(i.handle_error_state) refers to ota_protocol.o(ota_partition_buffer_area) for ota_partition_buffer_area
    ota_protocol.o(i.otaProtocol_BootMode) refers to ota_protocol.o(ota_app_loader_area) for run_application
    ota_protocol.o(i.otaProtocol_BootMode) refers to ota_protocol.o(i.run_fct) for run_fct
    ota_protocol.o(i.otaProtocol_BootMode) refers to ota_protocol.o(.data) for .data
    ota_protocol.o(i.otaProtocol_TimerEvt) refers to ota_protocol.o(i.response) for response
    ota_protocol.o(i.otaProtocol_TimerEvt) refers to ota_protocol.o(.bss) for .bss
    ota_protocol.o(i.otaProtocol_init) refers to ota_flash.o(i.ota_flash_read_bootsector) for ota_flash_read_bootsector
    ota_protocol.o(i.otaProtocol_init) refers to ota_service.o(i.ota_AddService) for ota_AddService
    ota_protocol.o(i.otaProtocol_init) refers to ota_protocol.o(.bss) for .bss
    ota_protocol.o(i.otaProtocol_init) refers to ota_protocol.o(.data) for .data
    ota_protocol.o(i.otaProtocol_init) refers to ota_protocol.o(i.process_service_evt) for process_service_evt
    ota_protocol.o(i.partition_program) refers to ota_flash.o(i.ota_flash_write_partition) for ota_flash_write_partition
    ota_protocol.o(i.partition_program) refers to ota_protocol.o(i.handle_error) for handle_error
    ota_protocol.o(i.partition_program) refers to ota_protocol.o(i.write_app_boot_sector) for write_app_boot_sector
    ota_protocol.o(i.partition_program) refers to ota_protocol.o(i.response) for response
    ota_protocol.o(i.partition_program) refers to ota_protocol.o(.bss) for .bss
    ota_protocol.o(i.process_ctrl_cmd) refers to ota_protocol.o(i.response_err) for response_err
    ota_protocol.o(i.process_ctrl_cmd) refers to ota_flash.o(i.ota_flash_read_bootsector) for ota_flash_read_bootsector
    ota_protocol.o(i.process_ctrl_cmd) refers to ota_flash.o(i.ota_flash_erase) for ota_flash_erase
    ota_protocol.o(i.process_ctrl_cmd) refers to uread4.o(.text) for __aeabi_uread4
    ota_protocol.o(i.process_ctrl_cmd) refers to ota_protocol.o(i.validate_partition_parameter) for validate_partition_parameter
    ota_protocol.o(i.process_ctrl_cmd) refers to ota_flash.o(i.ota_flash_erase_resource) for ota_flash_erase_resource
    ota_protocol.o(i.process_ctrl_cmd) refers to ota_protocol.o(i.handle_error) for handle_error
    ota_protocol.o(i.process_ctrl_cmd) refers to ota_protocol.o(i.handle_error_state) for handle_error_state
    ota_protocol.o(i.process_ctrl_cmd) refers to ota_protocol.o(i.response) for response
    ota_protocol.o(i.process_ctrl_cmd) refers to ota_protocol.o(ota_partition_buffer_area) for ota_partition_buffer_area
    ota_protocol.o(i.process_ctrl_cmd) refers to ota_protocol.o(.bss) for .bss
    ota_protocol.o(i.process_ctrl_cmd) refers to ota_protocol.o(.data) for .data
    ota_protocol.o(i.process_ota_data) refers to ota_protocol.o(i.handle_error_state) for handle_error_state
    ota_protocol.o(i.process_ota_data) refers to ota_protocol.o(i.process_ota_partition_data) for process_ota_partition_data
    ota_protocol.o(i.process_ota_data) refers to ota_protocol.o(i.handle_error) for handle_error
    ota_protocol.o(i.process_ota_data) refers to ota_protocol.o(i.response) for response
    ota_protocol.o(i.process_ota_data) refers to ota_protocol.o(.bss) for .bss
    ota_protocol.o(i.process_ota_partition_data) refers to my_printf.o(i.phy_printf) for phy_printf
    ota_protocol.o(i.process_ota_partition_data) refers to ota_protocol.o(i.start_timer) for start_timer
    ota_protocol.o(i.process_ota_partition_data) refers to crc16.o(i.crc16) for crc16
    ota_protocol.o(i.process_ota_partition_data) refers to ota_protocol.o(i.response) for response
    ota_protocol.o(i.process_ota_partition_data) refers to ota_protocol.o(i.sector_crypto) for sector_crypto
    ota_protocol.o(i.process_ota_partition_data) refers to ota_protocol.o(i.handle_error) for handle_error
    ota_protocol.o(i.process_ota_partition_data) refers to ota_protocol.o(i.partition_program) for partition_program
    ota_protocol.o(i.process_ota_partition_data) refers to ota_protocol.o(.bss) for .bss
    ota_protocol.o(i.process_ota_partition_data) refers to ota.o(.data) for ota_TaskID
    ota_protocol.o(i.process_service_evt) refers to my_printf.o(i.phy_printf) for phy_printf
    ota_protocol.o(i.process_service_evt) refers to ota_protocol.o(i.process_ctrl_cmd) for process_ctrl_cmd
    ota_protocol.o(i.process_service_evt) refers to ota_protocol.o(i.process_ota_data) for process_ota_data
    ota_protocol.o(i.process_service_evt) refers to ota_protocol.o(.bss) for .bss
    ota_protocol.o(i.response) refers to ota_service.o(i.ota_Notify) for ota_Notify
    ota_protocol.o(i.response_err) refers to ota_service.o(i.ota_Notify) for ota_Notify
    ota_protocol.o(i.run_fct) refers to ota_flash.o(i.ota_flash_load_fct) for ota_flash_load_fct
    ota_protocol.o(i.run_fct) refers to ota_protocol.o(ota_app_loader_area) for otaProtocol_RunApp
    ota_protocol.o(i.sector_crypto) refers to patch.o(i.finidv) for finidv
    ota_protocol.o(i.sector_crypto) refers to patch.o(i.verify_mic) for verify_mic
    ota_protocol.o(i.sector_crypto) refers to crc16.o(i.crc16) for crc16
    ota_protocol.o(i.sector_crypto) refers to ota_protocol.o(.bss) for .bss
    ota_protocol.o(i.start_timer) refers to ota.o(.data) for ota_TaskID
    ota_protocol.o(i.validate_partition_parameter) refers to ota_protocol.o(.bss) for .bss
    ota_protocol.o(i.write_app_boot_sector) refers to ota_flash.o(i.ota_flash_write_boot_sector) for ota_flash_write_boot_sector
    ota_protocol.o(i.write_app_boot_sector) refers to ota_protocol.o(.bss) for .bss
    ota_protocol.o(ota_app_loader_area) refers to ota_flash.o(ota_app_loader_area) for ota_flash_load_app
    ota_flash.o(i.ota_flash_erase) refers to flash_ext.o(i.flash_sector_erase) for flash_sector_erase
    ota_flash.o(i.ota_flash_erase) refers to flash_ext.o(i.flash_block64_erase) for flash_block64_erase
    ota_flash.o(i.ota_flash_erase_resource) refers to flash_ext.o(i.flash_sector_erase) for flash_sector_erase
    ota_flash.o(i.ota_flash_read_bootsector) refers to ota_flash.o(ota_app_loader_area) for ota_flash_read
    ota_flash.o(i.ota_flash_write_boot_sector) refers to flash_ext.o(i.flash_sector_erase) for flash_sector_erase
    ota_flash.o(i.ota_flash_write_boot_sector) refers to flash_ext.o(i.WriteFlash) for WriteFlash
    ota_flash.o(i.ota_flash_write_partition) refers to flash_ext.o(i.WriteFlash) for WriteFlash
    ota_flash.o(ota_app_loader_area) refers to aes.o(i.is_crypto_app) for is_crypto_app
    ota_flash.o(ota_app_loader_area) refers to crc16.o(i.crc16) for crc16
    ota_flash.o(ota_app_loader_area) refers to aes.o(i.flash_load_parition) for flash_load_parition
    ota_flash.o(ota_app_loader_area) refers to ota_flash.o(i.__NVIC_SystemReset) for __NVIC_SystemReset
    jump_table.o(i.hard_fault) refers to my_printf.o(i.phy_printf) for phy_printf
    jump_table.o(jump_table_mem_area) refers to osal_ota.o(i.osalInitTasks) for osalInitTasks
    jump_table.o(jump_table_mem_area) refers to osal_ota.o(.constdata) for tasksArr
    jump_table.o(jump_table_mem_area) refers to osal_ota.o(.constdata) for tasksCnt
    jump_table.o(jump_table_mem_area) refers to osal_ota.o(.data) for tasksEvents
    jump_table.o(jump_table_mem_area) refers (Weak) to pwrmgr.o(i.hal_pwrmgr_sleep_process) for hal_pwrmgr_sleep_process
    jump_table.o(jump_table_mem_area) refers (Weak) to pwrmgr.o(i.hal_pwrmgr_wakeup_process) for hal_pwrmgr_wakeup_process
    jump_table.o(jump_table_mem_area) refers to rf_phy_driver.o(i.rf_phy_ini) for rf_phy_ini
    jump_table.o(jump_table_mem_area) refers to jump_table.o(i.hard_fault) for hard_fault
    jump_table.o(jump_table_mem_area) refers (Weak) to patch.o(i.TIM0_IRQHandler1) for TIM0_IRQHandler1
    jump_table.o(jump_table_mem_area) refers (Weak) to uart.o(i.hal_UART0_IRQHandler) for hal_UART0_IRQHandler
    jump_table.o(jump_table_mem_area) refers (Weak) to gpio.o(i.hal_GPIO_IRQHandler) for hal_GPIO_IRQHandler
    osal_ota.o(i.osalInitTasks) refers to peripheral.o(i.GAPRole_Init) for GAPRole_Init
    osal_ota.o(i.osalInitTasks) refers to gattservapp.o(i.GATTServApp_Init) for GATTServApp_Init
    osal_ota.o(i.osalInitTasks) refers to ota.o(i.otaApp_Init) for otaApp_Init
    osal_ota.o(i.osalInitTasks) refers to osal_ota.o(.data) for .data
    osal_ota.o(.constdata) refers to peripheral.o(i.GAPRole_ProcessEvent) for GAPRole_ProcessEvent
    osal_ota.o(.constdata) refers to gattservapp.o(i.GATTServApp_ProcessEvent) for GATTServApp_ProcessEvent
    osal_ota.o(.constdata) refers to ota.o(i.otaApp_ProcessEvent) for otaApp_ProcessEvent
    ota.o(i.otaApp_Init) refers to peripheral.o(i.GAPRole_SetParameter) for GAPRole_SetParameter
    ota.o(i.otaApp_Init) refers to gapgattserver.o(i.GGS_SetParameter) for GGS_SetParameter
    ota.o(i.otaApp_Init) refers to gapgattserver.o(i.GGS_AddService) for GGS_AddService
    ota.o(i.otaApp_Init) refers to gattservapp.o(i.GATTServApp_AddService) for GATTServApp_AddService
    ota.o(i.otaApp_Init) refers to devinfoservice.o(i.DevInfo_AddService) for DevInfo_AddService
    ota.o(i.otaApp_Init) refers to ota_protocol.o(i.otaProtocol_init) for otaProtocol_init
    ota.o(i.otaApp_Init) refers to ota.o(.data) for .data
    ota.o(i.otaApp_ProcessEvent) refers to my_printf.o(i.phy_printf) for phy_printf
    ota.o(i.otaApp_ProcessEvent) refers to peripheral.o(i.GAPRole_StartDevice) for GAPRole_StartDevice
    ota.o(i.otaApp_ProcessEvent) refers to ota_protocol.o(i.otaProtocol_TimerEvt) for otaProtocol_TimerEvt
    ota.o(i.otaApp_ProcessEvent) refers to ota.o(.data) for .data
    ota.o(i.ota_GapStateCB) refers to my_printf.o(i.phy_printf) for phy_printf
    ota.o(i.ota_GapStateCB) refers to peripheral.o(i.GAPRole_GetParameter) for GAPRole_GetParameter
    ota.o(i.ota_GapStateCB) refers to heartrateservice.o(i.HeartRate_HandleConnStatusCB) for HeartRate_HandleConnStatusCB
    ota.o(i.ota_GapStateCB) refers to peripheral.o(i.GAPRole_SetParameter) for GAPRole_SetParameter
    ota.o(i.ota_GapStateCB) refers to devinfoservice.o(i.DevInfo_SetParameter) for DevInfo_SetParameter
    ota.o(i.ota_GapStateCB) refers to ota.o(.data) for .data
    ota.o(.data) refers to ota.o(i.ota_GapStateCB) for ota_GapStateCB
    common.o(i.WaitMs) refers to common.o(i.WaitRTCCount) for WaitRTCCount
    common.o(i.WaitRTCCount) refers to patch.o(i.clock_time_rtc) for clock_time_rtc
    common.o(i.WaitUs) refers to common.o(i.hal_read_current_time) for hal_read_current_time
    common.o(i.hal_convert_char_to_hex) refers to common.o(i.hal_my_sizeof) for hal_my_sizeof
    common.o(i.hal_convert_char_to_hex) refers to common.o(i.hal_is_an_valid_number) for hal_is_an_valid_number
    common.o(i.hal_copy_bin_from_flash_to_sram) refers to common.o(i.hal_cpyMem) for hal_cpyMem
    common.o(i.hal_system_init) refers to common.o(i.subWriteReg) for subWriteReg
    gpio.o(i.gpio_sleep_handler) refers to gpio.o(i.hal_gpio_read) for hal_gpio_read
    gpio.o(i.gpio_sleep_handler) refers to gpio.o(i.hal_gpio_wakeup_set) for hal_gpio_wakeup_set
    gpio.o(i.gpio_sleep_handler) refers to gpio.o(.bss) for .bss
    gpio.o(i.gpio_wakeup_handler) refers to gpio.o(i.__NVIC_SetPriority) for __NVIC_SetPriority
    gpio.o(i.gpio_wakeup_handler) refers to gpio.o(i.__NVIC_EnableIRQ) for __NVIC_EnableIRQ
    gpio.o(i.gpio_wakeup_handler) refers to gpio.o(i.hal_gpioin_enable) for hal_gpioin_enable
    gpio.o(i.gpio_wakeup_handler) refers to gpio.o(i.hal_gpio_read) for hal_gpio_read
    gpio.o(i.gpio_wakeup_handler) refers to gpio.o(i.gpioin_event_pin) for gpioin_event_pin
    gpio.o(i.gpio_wakeup_handler) refers to gpio.o(.bss) for .bss
    gpio.o(i.gpioin_event) refers to gpio.o(i.gpioin_event_pin) for gpioin_event_pin
    gpio.o(i.gpioin_event) refers to gpio.o(i.gpio_interrupt_enable) for gpio_interrupt_enable
    gpio.o(i.gpioin_event) refers to gpio.o(.bss) for .bss
    gpio.o(i.gpioin_event_pin) refers to gpio.o(.bss) for .bss
    gpio.o(i.hal_GPIO_IRQHandler) refers to gpio.o(i.gpioin_event) for gpioin_event
    gpio.o(i.hal_gpio_cfg_analog_io) refers to gpio.o(i.hal_gpio_pull_set) for hal_gpio_pull_set
    gpio.o(i.hal_gpio_fmux_set) refers to gpio.o(i.hal_gpio_fmux) for hal_gpio_fmux
    gpio.o(i.hal_gpio_init) refers to memseta.o(.text) for __aeabi_memclr4
    gpio.o(i.hal_gpio_init) refers to gpio.o(i.__NVIC_SetPriority) for __NVIC_SetPriority
    gpio.o(i.hal_gpio_init) refers to gpio.o(i.__NVIC_EnableIRQ) for __NVIC_EnableIRQ
    gpio.o(i.hal_gpio_init) refers to pwrmgr.o(i.hal_pwrmgr_register) for hal_pwrmgr_register
    gpio.o(i.hal_gpio_init) refers to gpio.o(.bss) for .bss
    gpio.o(i.hal_gpio_init) refers to gpio.o(i.gpio_wakeup_handler) for gpio_wakeup_handler
    gpio.o(i.hal_gpio_init) refers to gpio.o(i.gpio_sleep_handler) for gpio_sleep_handler
    gpio.o(i.hal_gpio_pin_init) refers to gpio.o(i.gpio_pin0to3_pin31to34_control) for gpio_pin0to3_pin31to34_control
    gpio.o(i.hal_gpio_pin_init) refers to gpio.o(i.hal_gpio_fmux) for hal_gpio_fmux
    gpio.o(i.hal_gpio_toggle) refers to gpio.o(i.hal_gpio_pin_init) for hal_gpio_pin_init
    gpio.o(i.hal_gpio_write) refers to gpio.o(i.hal_gpio_pin_init) for hal_gpio_pin_init
    gpio.o(i.hal_gpioin_disable) refers to gpio.o(i.hal_gpio_pin_init) for hal_gpio_pin_init
    gpio.o(i.hal_gpioin_disable) refers to gpio.o(.bss) for .bss
    gpio.o(i.hal_gpioin_enable) refers to gpio.o(i.hal_gpio_pin_init) for hal_gpio_pin_init
    gpio.o(i.hal_gpioin_enable) refers to gpio.o(i.hal_gpio_read) for hal_gpio_read
    gpio.o(i.hal_gpioin_enable) refers to gpio.o(i.gpio_interrupt_enable) for gpio_interrupt_enable
    gpio.o(i.hal_gpioin_enable) refers to gpio.o(.bss) for .bss
    gpio.o(i.hal_gpioin_register) refers to gpio.o(i.hal_gpioin_disable) for hal_gpioin_disable
    gpio.o(i.hal_gpioin_register) refers to gpio.o(i.hal_gpioin_enable) for hal_gpioin_enable
    gpio.o(i.hal_gpioin_register) refers to gpio.o(.bss) for .bss
    gpio.o(i.hal_gpioin_unregister) refers to gpio.o(i.hal_gpioin_disable) for hal_gpioin_disable
    gpio.o(i.hal_gpioin_unregister) refers to gpio.o(.bss) for .bss
    my_printf.o(i.phy_printf) refers to memseta.o(.text) for __aeabi_memclr
    my_printf.o(i.phy_printf) refers to my_printf.o(i.print) for print
    my_printf.o(i.phy_printf) refers to uart.o(i.hal_uart_send_buff) for hal_uart_send_buff
    my_printf.o(i.phy_printf) refers to my_printf.o(.bss) for .bss
    my_printf.o(i.phy_printf) refers to my_printf.o(.data) for .data
    my_printf.o(i.phy_printf_init) refers to uart.o(i.hal_uart_init) for hal_uart_init
    my_printf.o(i.phy_printf_init) refers to my_printf.o(.constdata) for .constdata
    my_printf.o(i.print) refers to my_printf.o(i.prints) for prints
    my_printf.o(i.print) refers to my_printf.o(i.printi) for printi
    my_printf.o(i.print) refers to my_printf.o(i.printchar) for printchar
    my_printf.o(i.printchar) refers to my_printf.o(.data) for .data
    my_printf.o(i.printchar) refers to my_printf.o(.bss) for .bss
    my_printf.o(i.printi) refers to my_printf.o(i.prints) for prints
    my_printf.o(i.printi) refers to my_printf.o(i.printchar) for printchar
    my_printf.o(i.prints) refers to my_printf.o(i.printchar) for printchar
    uart.o(i.hal_UART0_IRQHandler) refers to uart.o(i.irq_rx_handler) for irq_rx_handler
    uart.o(i.hal_UART0_IRQHandler) refers to uart.o(i.irq_tx_empty_handler) for irq_tx_empty_handler
    uart.o(i.hal_uart_get_tx_ready) refers to uart.o(.bss) for .bss
    uart.o(i.hal_uart_init) refers to memseta.o(.text) for __aeabi_memclr4
    uart.o(i.hal_uart_init) refers to uart.o(i.uart_hw_config) for uart_hw_config
    uart.o(i.hal_uart_init) refers to pwrmgr.o(i.hal_pwrmgr_register) for hal_pwrmgr_register
    uart.o(i.hal_uart_init) refers to uart.o(.bss) for .bss
    uart.o(i.hal_uart_send_buff) refers to uart.o(i.txmit_buf_use_tx_buf) for txmit_buf_use_tx_buf
    uart.o(i.hal_uart_send_buff) refers to uart.o(i.txmit_buf_polling) for txmit_buf_polling
    uart.o(i.hal_uart_send_buff) refers to uart.o(.bss) for .bss
    uart.o(i.hal_uart_set_tx_buf) refers to uart.o(.bss) for .bss
    uart.o(i.irq_rx_handler) refers to uart.o(.bss) for .bss
    uart.o(i.irq_tx_empty_handler) refers to pwrmgr.o(i.hal_pwrmgr_unlock) for hal_pwrmgr_unlock
    uart.o(i.irq_tx_empty_handler) refers to uart.o(.bss) for .bss
    uart.o(i.irq_tx_empty_handler) refers to uart.o(.constdata) for .constdata
    uart.o(i.txmit_buf_use_tx_buf) refers to memcpya.o(.text) for __aeabi_memcpy
    uart.o(i.txmit_buf_use_tx_buf) refers to pwrmgr.o(i.hal_pwrmgr_lock) for hal_pwrmgr_lock
    uart.o(i.txmit_buf_use_tx_buf) refers to uart.o(.bss) for .bss
    uart.o(i.uart_hw_config) refers to clock.o(i.clk_pclk) for clk_pclk
    uart.o(i.uart_hw_config) refers to clock.o(i.clk_gate_enable) for clk_gate_enable
    uart.o(i.uart_hw_config) refers to clock.o(i.clk_reset) for clk_reset
    uart.o(i.uart_hw_config) refers to gpio.o(i.hal_gpio_fmux_set) for hal_gpio_fmux_set
    uart.o(i.uart_hw_config) refers to uart.o(.bss) for .bss
    clock.o(i.hal_rtc_clock_config) refers to gpio.o(i.hal_gpio_pull_set) for hal_gpio_pull_set
    clock.o(i.hal_rtc_clock_config) refers to common.o(i.subWriteReg) for subWriteReg
    clock.o(i.hal_rtc_clock_config) refers to patch.o(.data) for pGlobal_config
    flash.o(i.flash_erase_ucds) refers to flash_ext.o(i.flash_sector_erase) for flash_sector_erase
    flash.o(i.flash_erase_ucds_all) refers to flash_ext.o(i.flash_sector_erase) for flash_sector_erase
    flash.o(i.flash_read_ucds_block) refers to flash.o(i.flash_read_ucds) for flash_read_ucds
    flash.o(i.flash_read_ucds_block_byte) refers to flash.o(i.flash_read_ucds) for flash_read_ucds
    flash.o(i.flash_write_ucds) refers to flash_ext.o(i.ProgramWord) for ProgramWord
    flash.o(i.flash_write_ucds_block) refers to flash.o(i.flash_write_ucds) for flash_write_ucds
    flash.o(i.flash_write_ucds_block_byte) refers to uread4.o(.text) for __aeabi_uread4
    flash.o(i.flash_write_ucds_block_byte) refers to flash.o(i.flash_write_ucds) for flash_write_ucds
    pwrmgr.o(i.hal_pwrmgr_LowCurrentLdo_disable) refers to common.o(i.subWriteReg) for subWriteReg
    pwrmgr.o(i.hal_pwrmgr_LowCurrentLdo_enable) refers to common.o(i.subWriteReg) for subWriteReg
    pwrmgr.o(i.hal_pwrmgr_RAM_retention) refers to pwrmgr.o(.data) for .data
    pwrmgr.o(i.hal_pwrmgr_RAM_retention_clr) refers to common.o(i.subWriteReg) for subWriteReg
    pwrmgr.o(i.hal_pwrmgr_RAM_retention_set) refers to common.o(i.subWriteReg) for subWriteReg
    pwrmgr.o(i.hal_pwrmgr_RAM_retention_set) refers to pwrmgr.o(.data) for .data
    pwrmgr.o(i.hal_pwrmgr_init) refers to memseta.o(.text) for __aeabi_memclr4
    pwrmgr.o(i.hal_pwrmgr_init) refers to pwrmgr.o(.bss) for .bss
    pwrmgr.o(i.hal_pwrmgr_init) refers to pwrmgr.o(.data) for .data
    pwrmgr.o(i.hal_pwrmgr_is_lock) refers to pwrmgr.o(.data) for .data
    pwrmgr.o(i.hal_pwrmgr_is_lock) refers to pwrmgr.o(.bss) for .bss
    pwrmgr.o(i.hal_pwrmgr_lock) refers to pwrmgr.o(.data) for .data
    pwrmgr.o(i.hal_pwrmgr_lock) refers to pwrmgr.o(.bss) for .bss
    pwrmgr.o(i.hal_pwrmgr_poweroff) refers to common.o(i.subWriteReg) for subWriteReg
    pwrmgr.o(i.hal_pwrmgr_poweroff) refers to gpio.o(i.hal_gpio_wakeup_set) for hal_gpio_wakeup_set
    pwrmgr.o(i.hal_pwrmgr_register) refers to pwrmgr.o(.bss) for .bss
    pwrmgr.o(i.hal_pwrmgr_sleep_process) refers to pwrmgr.o(i.hal_pwrmgr_RAM_retention_set) for hal_pwrmgr_RAM_retention_set
    pwrmgr.o(i.hal_pwrmgr_sleep_process) refers to pwrmgr.o(.bss) for .bss
    pwrmgr.o(i.hal_pwrmgr_unlock) refers to pwrmgr.o(.data) for .data
    pwrmgr.o(i.hal_pwrmgr_unlock) refers to pwrmgr.o(.bss) for .bss
    pwrmgr.o(i.hal_pwrmgr_unregister) refers to memcpya.o(.text) for __aeabi_memcpy4
    pwrmgr.o(i.hal_pwrmgr_unregister) refers to pwrmgr.o(.bss) for .bss
    pwrmgr.o(i.hal_pwrmgr_wakeup_process) refers to pwrmgr.o(.bss) for .bss
    pwrmgr.o(i.system_on_handler) refers to clock.o(i.hal_rtc_clock_config) for hal_rtc_clock_config
    pwrmgr.o(i.system_on_handler) refers to gpio.o(i.hal_gpio_pull_set) for hal_gpio_pull_set
    pwrmgr.o(i.system_on_handler) refers to common.o(i.WaitMs) for WaitMs
    pwrmgr.o(i.system_on_handler) refers to gpio.o(i.hal_gpio_read) for hal_gpio_read
    pwrmgr.o(i.system_on_handler) refers to patch.o(i.clock_time_rtc) for clock_time_rtc
    pwrmgr.o(i.system_on_handler) refers to pwrmgr.o(i.hal_pwrmgr_poweroff) for hal_pwrmgr_poweroff
    crc16.o(i.crc16) refers to crc16.o(.constdata) for .constdata
    crc16.o(i.crc16_CCITT) refers to crc16.o(i.InvertUint8) for InvertUint8
    crc16.o(i.crc16_CCITT) refers to crc16.o(i.InvertUint16) for InvertUint16
    crc16.o(i.crc16_IBM) refers to crc16.o(i.InvertUint8) for InvertUint8
    crc16.o(i.crc16_IBM) refers to crc16.o(i.InvertUint16) for InvertUint16
    crc16.o(i.crc16_MAXIM) refers to crc16.o(i.InvertUint8) for InvertUint8
    crc16.o(i.crc16_MAXIM) refers to crc16.o(i.InvertUint16) for InvertUint16
    crc16.o(i.crc16_MODBUS) refers to crc16.o(i.InvertUint8) for InvertUint8
    crc16.o(i.crc16_MODBUS) refers to crc16.o(i.InvertUint16) for InvertUint16
    crc16.o(i.crc16_USB) refers to crc16.o(i.InvertUint8) for InvertUint8
    crc16.o(i.crc16_USB) refers to crc16.o(i.InvertUint16) for InvertUint16
    crc16.o(i.crc16_X25) refers to crc16.o(i.InvertUint8) for InvertUint8
    crc16.o(i.crc16_X25) refers to crc16.o(i.InvertUint16) for InvertUint16
    startup_armcm0.o(RESET) refers to startup_armcm0.o(STACK) for __initial_sp
    startup_armcm0.o(RESET) refers to startup_armcm0.o(.text) for Reset_Handler
    startup_armcm0.o(.text) refers to system_armcm0.o(i.SystemInit) for SystemInit
    startup_armcm0.o(.text) refers to entry.o(.ARM.Collect$$$$00000000) for __main
    system_armcm0.o(i.SystemCoreClockUpdate) refers to system_armcm0.o(.data) for .data
    system_armcm0.o(i.SystemInit) refers to system_armcm0.o(.data) for .data
    patch.o(i.HCI_PPLUS_AdvEventDoneNoticeCmd) refers to patch.o(.data) for .data
    patch.o(i.HCI_PPLUS_ConnEventDoneNoticeCmd) refers to patch.o(.data) for .data
    patch.o(i.HCI_PPLUS_ExtendTRXCmd) refers to patch.o(.data) for .data
    patch.o(i.LL_ENC_Decrypt0) refers to uread4.o(.text) for __aeabi_uread4
    patch.o(i.LL_ENC_Encrypt0) refers to uread4.o(.text) for __aeabi_uread4
    patch.o(i.LL_IRQHandler1) refers to rf_phy_driver.o(i.rf_phy_get_pktFoot) for rf_phy_get_pktFoot
    patch.o(i.LL_IRQHandler1) refers to patch.o(i.ll_adptive_smart_window) for ll_adptive_smart_window
    patch.o(i.LL_IRQHandler1) refers to patch.o(.data) for .data
    patch.o(i.LL_IRQHandler1) refers to patch.o(.bss) for .bss
    patch.o(i.LL_PLUS_GetCurrentRSSI) refers to rf_phy_driver.o(i.rf_phy_get_pktFoot) for rf_phy_get_pktFoot
    patch.o(i.LL_PLUS_PerStasReadByChn) refers to patch.o(.bss) for .bss
    patch.o(i.LL_PLUS_PerStatsReset) refers to patch.o(.bss) for .bss
    patch.o(i.LL_PLUS_SetScanRequestFilterCB) refers to patch.o(.data) for .data
    patch.o(i.LL_slave_conn_event1) refers to patch.o(.data) for .data
    patch.o(i.LL_slave_conn_event1) refers to patch.o(.bss) for .bss
    patch.o(i.LOG_PATCH_DATA_TIME) refers to my_printf.o(i.phy_printf) for phy_printf
    patch.o(i.LOG_PATCH_DATA_TIME) refers to patch.o(.constdata) for .constdata
    patch.o(i.TIM0_IRQHandler1) refers to patch.o(.data) for .data
    patch.o(i.boot_init1) refers to common.o(i.subWriteReg) for subWriteReg
    patch.o(i.check_PerStatsProcess) refers to my_printf.o(i.phy_printf) for phy_printf
    patch.o(i.check_PerStatsProcess) refers to patch.o(i.LL_PLUS_PerStasReadByChn) for LL_PLUS_PerStasReadByChn
    patch.o(i.check_PerStatsProcess) refers to patch.o(i.LL_PLUS_PerStatsReset) for LL_PLUS_PerStatsReset
    patch.o(i.config_RTC1) refers to common.o(i.WaitRTCCount) for WaitRTCCount
    patch.o(i.config_RTC1) refers to patch.o(i.clock_time_rtc) for clock_time_rtc
    patch.o(i.config_RTC1) refers to patch.o(.data) for .data
    patch.o(i.enterSleepProcess1) refers to common.o(i.subWriteReg) for subWriteReg
    patch.o(i.enterSleepProcess1) refers to pwrmgr.o(i.hal_pwrmgr_sleep_process) for hal_pwrmgr_sleep_process
    patch.o(i.enterSleepProcess1) refers to pwrmgr.o(i.hal_pwrmgr_RAM_retention_set) for hal_pwrmgr_RAM_retention_set
    patch.o(i.enterSleepProcess1) refers to patch.o(.data) for .data
    patch.o(i.finidv) refers to flash_ext.o(i.read_chip_id) for read_chip_id
    patch.o(i.finidv) refers to flash_ext.o(.bss) for g_chipId
    patch.o(i.getPN23RandNumber) refers to patch.o(.data) for .data
    patch.o(i.get_time_dlt_from_rtcRC) refers to common.o(i.WaitRTCCount) for WaitRTCCount
    patch.o(i.get_time_dlt_from_rtcRC) refers to patch.o(i.clock_time_rtc) for clock_time_rtc
    patch.o(i.hal_rom_code_ini) refers to rf_phy_driver.o(i.rf_phy_ini) for rf_phy_ini
    patch.o(i.hal_rom_code_ini) refers to patch.o(i.rf_calibrate1) for rf_calibrate1
    patch.o(i.hal_rom_code_ini) refers to patch.o(.data) for .data
    patch.o(i.init_config) refers to flash_ext.o(i.check_chip_id) for check_chip_id
    patch.o(i.init_config) refers to flash_ext.o(i.check_chip_mAddr) for check_chip_mAddr
    patch.o(i.init_config) refers to jump_table.o(global_config_area) for global_config
    patch.o(i.init_config) refers to patch.o(.data) for .data
    patch.o(i.init_config) refers to startup_armcm0.o(STACK) for __initial_sp
    patch.o(i.init_config) refers to rf_phy_driver.o(.data) for g_system_clk
    patch.o(i.init_config) refers to patch.o(i.ll_hw_go1) for ll_hw_go1
    patch.o(i.init_config) refers to patch.o(i.LL_IRQHandler1) for LL_IRQHandler1
    patch.o(i.init_config) refers to patch.o(i.rf_calibrate1) for rf_calibrate1
    patch.o(i.init_config) refers to patch.o(i.LL_ENC_Encrypt0) for LL_ENC_Encrypt0
    patch.o(i.init_config) refers to patch.o(i.LL_ENC_Decrypt0) for LL_ENC_Decrypt0
    patch.o(i.init_config) refers to patch.o(i.llProcessSlaveControlProcedures0) for llProcessSlaveControlProcedures0
    patch.o(i.init_config) refers to patch.o(i.LL_SetAdvParam1) for LL_SetAdvParam1
    patch.o(i.init_config) refers to patch.o(i.llSetupDirectedAdvEvt1) for llSetupDirectedAdvEvt1
    patch.o(i.init_config) refers to patch.o(i.llProcessRxData1) for llProcessRxData1
    patch.o(i.init_config) refers to patch.o(i.LL_set_default_conn_params1) for LL_set_default_conn_params1
    patch.o(i.init_config) refers to patch.o(i.wakeupProcess1) for wakeupProcess1
    patch.o(i.init_config) refers to patch.o(i.osal_pwrmgr_powerconserve1) for osal_pwrmgr_powerconserve1
    patch.o(i.init_config) refers to patch.o(i.enterSleepProcess1) for enterSleepProcess1
    patch.o(i.init_config) refers to patch.o(i.move_to_slave_function1) for move_to_slave_function1
    patch.o(i.init_config) refers to patch.o(i.LL_slave_conn_event1) for LL_slave_conn_event1
    patch.o(i.init_config) refers to patch.o(i.llSetupUndirectedAdvEvt1) for llSetupUndirectedAdvEvt1
    patch.o(i.init_config) refers to patch.o(i.wakeup_init1) for wakeup_init1
    patch.o(i.init_config) refers to patch.o(i.boot_init1) for boot_init1
    patch.o(i.init_config) refers to patch.o(i.config_RTC1) for config_RTC1
    patch.o(i.init_config) refers to patch.o(i.llSetupAdv1) for llSetupAdv1
    patch.o(i.init_config) refers to patch.o(i.llSlaveEvt_TaskEndOk1) for llSlaveEvt_TaskEndOk1
    patch.o(i.init_config) refers to patch.o(i.llSetupNextSlaveEvent1) for llSetupNextSlaveEvent1
    patch.o(i.init_config) refers to patch.o(i.llProcessSlaveControlPacket1) for llProcessSlaveControlPacket1
    patch.o(i.llProcessRxData1) refers to common.o(i.hal_cpyMem) for hal_cpyMem
    patch.o(i.llProcessSlaveControlProcedures0) refers to patch.o(i.llSetupTermInd1) for llSetupTermInd1
    patch.o(i.llProcessSlaveControlProcedures0) refers to patch.o(i.llSetupEncRsp0) for llSetupEncRsp0
    patch.o(i.llProcessSlaveControlProcedures0) refers to patch.o(i.llSetupRejectInd1) for llSetupRejectInd1
    patch.o(i.llProcessSlaveControlProcedures0) refers to patch.o(i.llSetupFeatureSetRsp1) for llSetupFeatureSetRsp1
    patch.o(i.llProcessSlaveControlProcedures0) refers to patch.o(i.llSetupUnknownRsp1) for llSetupUnknownRsp1
    patch.o(i.llSetupAdv1) refers to patch.o(.data) for .data
    patch.o(i.llSetupDirectedAdvEvt1) refers to patch.o(.data) for .data
    patch.o(i.llSetupEncRsp0) refers to patch.o(.data) for .data
    patch.o(i.llSetupFeatureSetRsp1) refers to patch.o(.data) for .data
    patch.o(i.llSetupNextSlaveEvent1) refers to patch.o(i.llAdjSlaveLatencyValue) for llAdjSlaveLatencyValue
    patch.o(i.llSetupRejectInd1) refers to patch.o(.data) for .data
    patch.o(i.llSetupTermInd1) refers to patch.o(.data) for .data
    patch.o(i.llSetupUndirectedAdvEvt1) refers to patch.o(i.getPN23RandNumber) for getPN23RandNumber
    patch.o(i.llSetupUndirectedAdvEvt1) refers to patch.o(.data) for .data
    patch.o(i.llSetupUnknownRsp1) refers to patch.o(.data) for .data
    patch.o(i.llSlaveEvt_TaskEndOk1) refers to patch.o(i.ll_adptive_adj_next_time) for ll_adptive_adj_next_time
    patch.o(i.llSlaveEvt_TaskEndOk1) refers to patch.o(.data) for .data
    patch.o(i.ll_adptive_adj_next_time) refers to patch.o(.data) for .data
    patch.o(i.ll_adptive_smart_window) refers to patch.o(.data) for .data
    patch.o(i.ll_hw_go1) refers to common.o(i.subWriteReg) for subWriteReg
    patch.o(i.ll_hw_go1) refers to patch.o(.data) for .data
    patch.o(i.ll_hw_go1) refers to rf_phy_driver.o(.data) for g_rfPhyFreqOffSet
    patch.o(i.ll_hw_go1) refers to rf_phy_driver.o(.bss) for g_rfPhyTpCalCapArry
    patch.o(i.move_to_slave_function1) refers to patch.o(i.llAdjSlaveLatencyValue) for llAdjSlaveLatencyValue
    patch.o(i.move_to_slave_function1) refers to patch.o(.data) for .data
    patch.o(i.osal_pwrmgr_powerconserve1) refers to patch.o(i.clock_time_rtc) for clock_time_rtc
    patch.o(i.osal_pwrmgr_powerconserve1) refers to jump_table.o(global_config_area) for global_config
    patch.o(i.osal_pwrmgr_powerconserve1) refers to patch.o(.data) for .data
    patch.o(i.pplus_LoadMACFromChipMAddr) refers to flash_ext.o(.data) for g_chipMAddr
    patch.o(i.rc32k_calibration) refers to common.o(i.WaitRTCCount) for WaitRTCCount
    patch.o(i.rc32k_calibration_check) refers to patch.o(i.rc32k_calibration) for rc32k_calibration
    patch.o(i.rc32k_calibration_check) refers to patch.o(i.rc32k_tracking_check) for rc32k_tracking_check
    patch.o(i.rc32k_tracking_check) refers to common.o(i.WaitRTCCount) for WaitRTCCount
    patch.o(i.rc32k_tracking_check) refers to patch.o(i.arry_sort) for arry_sort
    patch.o(i.rf_calibrate1) refers to rf_phy_driver.o(i.rf_phy_ana_cfg) for rf_phy_ana_cfg
    patch.o(i.rf_calibrate1) refers to rf_phy_driver.o(i.rf_tpCal_gen_cap_arrary) for rf_tpCal_gen_cap_arrary
    patch.o(i.rf_calibrate1) refers to rf_phy_driver.o(i.rf_rxDcoc_cfg) for rf_rxDcoc_cfg
    patch.o(i.rf_calibrate1) refers to patch.o(i.rc32k_calibration_check) for rc32k_calibration_check
    patch.o(i.rf_calibrate1) refers to rf_phy_driver.o(.data) for g_rfPhyRxDcIQ
    patch.o(i.test_rc32k_calibration) refers to patch.o(i.rc32k_calibration_check) for rc32k_calibration_check
    patch.o(i.test_rc32k_calibration) refers to my_printf.o(i.phy_printf) for phy_printf
    patch.o(i.verify_mic) refers to patch.o(i.finidv) for finidv
    patch.o(i.verify_mic) refers to aes.o(i.aes_ccm_phyplus_dec) for aes_ccm_phyplus_dec
    patch.o(i.wakeupProcess1) refers to pwrmgr.o(i.hal_pwrmgr_RAM_retention_clr) for hal_pwrmgr_RAM_retention_clr
    patch.o(i.wakeupProcess1) refers to common.o(i.subWriteReg) for subWriteReg
    patch.o(i.wakeupProcess1) refers to common.o(i.WaitRTCCount) for WaitRTCCount
    patch.o(i.wakeupProcess1) refers to patch.o(i.clock_time_rtc) for clock_time_rtc
    patch.o(i.wakeupProcess1) refers to jump_table.o(global_config_area) for global_config
    patch.o(i.wakeupProcess1) refers to patch.o(.data) for .data
    patch.o(i.wakeup_init1) refers to common.o(i.subWriteReg) for subWriteReg
    patch.o(i.wakeup_init1) refers to common.o(i.WaitRTCCount) for WaitRTCCount
    patch.o(i.wakeup_init1) refers to common.o(i.hal_system_init) for hal_system_init
    patch.o(i.wakeup_init1) refers to rf_phy_driver.o(.data) for g_rfPhyClkSel
    patch.o(i.wakeup_init1) refers to patch.o(.data) for .data
    patch.o(.data) refers to patch.o(.conststring) for .conststring
    rf_phy_driver.o(i.rf_phy_ana_cfg) refers to common.o(i.subWriteReg) for subWriteReg
    rf_phy_driver.o(i.rf_phy_ana_cfg) refers to rf_phy_driver.o(.data) for .data
    rf_phy_driver.o(i.rf_phy_bb_cfg) refers to rf_phy_driver.o(.data) for .data
    rf_phy_driver.o(i.rf_phy_clk_cfg) refers to rf_phy_driver.o(.data) for .data
    rf_phy_driver.o(i.rf_phy_direct_test) refers to rf_phy_driver.o(i.rf_phy_dtm_init) for rf_phy_dtm_init
    rf_phy_driver.o(i.rf_phy_direct_test) refers to rf_phy_driver.o(i.rf_phy_dtm_cmd_parse) for rf_phy_dtm_cmd_parse
    rf_phy_driver.o(i.rf_phy_direct_test) refers to rf_phy_driver.o(i.rf_phy_dtm_evt_send) for rf_phy_dtm_evt_send
    rf_phy_driver.o(i.rf_phy_direct_test) refers to rf_phy_driver.o(i.rf_phy_dtm_trigged) for rf_phy_dtm_trigged
    rf_phy_driver.o(i.rf_phy_direct_test) refers to common.o(i.subWriteReg) for subWriteReg
    rf_phy_driver.o(i.rf_phy_direct_test) refers to rf_phy_driver.o(i.read_current_time) for read_current_time
    rf_phy_driver.o(i.rf_phy_direct_test) refers to rf_phy_driver.o(i.rf_phy_get_pktFoot) for rf_phy_get_pktFoot
    rf_phy_driver.o(i.rf_phy_direct_test) refers to rf_phy_driver.o(i.waitTimeUs) for waitTimeUs
    rf_phy_driver.o(i.rf_phy_direct_test) refers to rf_phy_driver.o(.data) for .data
    rf_phy_driver.o(i.rf_phy_dtm_cmd_parse) refers to common.o(i.subWriteReg) for subWriteReg
    rf_phy_driver.o(i.rf_phy_dtm_cmd_parse) refers to rf_phy_driver.o(.data) for .data
    rf_phy_driver.o(i.rf_phy_dtm_evt_send) refers to rf_phy_driver.o(.data) for .data
    rf_phy_driver.o(i.rf_phy_dtm_ext_acc_code_set) refers to rf_phy_driver.o(.data) for .data
    rf_phy_driver.o(i.rf_phy_dtm_ext_rx_demod_burst) refers to rf_phy_driver.o(i.rf_phy_dtm_init) for rf_phy_dtm_init
    rf_phy_driver.o(i.rf_phy_dtm_ext_rx_demod_burst) refers to rf_phy_driver.o(i.rf_phy_dtm_trigged) for rf_phy_dtm_trigged
    rf_phy_driver.o(i.rf_phy_dtm_ext_rx_demod_burst) refers to clock.o(i.hal_systick) for hal_systick
    rf_phy_driver.o(i.rf_phy_dtm_ext_rx_demod_burst) refers to common.o(i.subWriteReg) for subWriteReg
    rf_phy_driver.o(i.rf_phy_dtm_ext_rx_demod_burst) refers to rf_phy_driver.o(i.rf_phy_get_pktFoot) for rf_phy_get_pktFoot
    rf_phy_driver.o(i.rf_phy_dtm_ext_rx_demod_burst) refers to clock.o(i.hal_ms_intv) for hal_ms_intv
    rf_phy_driver.o(i.rf_phy_dtm_ext_rx_demod_burst) refers to rf_phy_driver.o(i.rf_phy_dtm_stop) for rf_phy_dtm_stop
    rf_phy_driver.o(i.rf_phy_dtm_ext_rx_demod_burst) refers to rf_phy_driver.o(.data) for .data
    rf_phy_driver.o(i.rf_phy_dtm_ext_tx_mod_burst) refers to rf_phy_driver.o(i.rf_phy_dtm_init) for rf_phy_dtm_init
    rf_phy_driver.o(i.rf_phy_dtm_ext_tx_mod_burst) refers to rf_phy_driver.o(i.rf_phy_dtm_trigged) for rf_phy_dtm_trigged
    rf_phy_driver.o(i.rf_phy_dtm_ext_tx_mod_burst) refers to common.o(i.subWriteReg) for subWriteReg
    rf_phy_driver.o(i.rf_phy_dtm_ext_tx_mod_burst) refers to rf_phy_driver.o(i.read_current_time) for read_current_time
    rf_phy_driver.o(i.rf_phy_dtm_ext_tx_mod_burst) refers to rf_phy_driver.o(i.rf_phy_dtm_stop) for rf_phy_dtm_stop
    rf_phy_driver.o(i.rf_phy_dtm_ext_tx_mod_burst) refers to rf_phy_driver.o(.data) for .data
    rf_phy_driver.o(i.rf_phy_dtm_ext_tx_modulation) refers to rf_phy_driver.o(i.rf_phy_dtm_init) for rf_phy_dtm_init
    rf_phy_driver.o(i.rf_phy_dtm_ext_tx_modulation) refers to rf_phy_driver.o(i.rf_phy_dtm_trigged) for rf_phy_dtm_trigged
    rf_phy_driver.o(i.rf_phy_dtm_ext_tx_modulation) refers to rf_phy_driver.o(i.waitTimeUs) for waitTimeUs
    rf_phy_driver.o(i.rf_phy_dtm_ext_tx_modulation) refers to rf_phy_driver.o(i.rf_phy_dtm_stop) for rf_phy_dtm_stop
    rf_phy_driver.o(i.rf_phy_dtm_ext_tx_modulation) refers to rf_phy_driver.o(.data) for .data
    rf_phy_driver.o(i.rf_phy_dtm_ext_tx_singleTone) refers to rf_phy_driver.o(i.rf_phy_dtm_init) for rf_phy_dtm_init
    rf_phy_driver.o(i.rf_phy_dtm_ext_tx_singleTone) refers to rf_phy_driver.o(i.rf_phy_dtm_trigged) for rf_phy_dtm_trigged
    rf_phy_driver.o(i.rf_phy_dtm_ext_tx_singleTone) refers to rf_phy_driver.o(i.waitTimeUs) for waitTimeUs
    rf_phy_driver.o(i.rf_phy_dtm_ext_tx_singleTone) refers to rf_phy_driver.o(i.rf_phy_dtm_stop) for rf_phy_dtm_stop
    rf_phy_driver.o(i.rf_phy_dtm_ext_tx_singleTone) refers to rf_phy_driver.o(.data) for .data
    rf_phy_driver.o(i.rf_phy_dtm_stop) refers to common.o(i.subWriteReg) for subWriteReg
    rf_phy_driver.o(i.rf_phy_dtm_trigged) refers to common.o(i.subWriteReg) for subWriteReg
    rf_phy_driver.o(i.rf_phy_dtm_trigged) refers to rf_phy_driver.o(i.read_current_time) for read_current_time
    rf_phy_driver.o(i.rf_phy_dtm_trigged) refers to rf_phy_driver.o(i.rf_phy_ana_cfg) for rf_phy_ana_cfg
    rf_phy_driver.o(i.rf_phy_dtm_trigged) refers to rf_phy_driver.o(i.rf_rxDcoc_cfg) for rf_rxDcoc_cfg
    rf_phy_driver.o(i.rf_phy_dtm_trigged) refers to rf_phy_driver.o(i.rf_phy_ini) for rf_phy_ini
    rf_phy_driver.o(i.rf_phy_dtm_trigged) refers to rf_phy_driver.o(i.rf_tpCal_cfg_avg) for rf_tpCal_cfg_avg
    rf_phy_driver.o(i.rf_phy_dtm_trigged) refers to rf_phy_driver.o(i.rf_phy_set_txPower) for rf_phy_set_txPower
    rf_phy_driver.o(i.rf_phy_dtm_trigged) refers to rf_phy_driver.o(i.rf_phy_dtm_zigbee_pkt_gen) for rf_phy_dtm_zigbee_pkt_gen
    rf_phy_driver.o(i.rf_phy_dtm_trigged) refers to rf_phy_driver.o(.data) for .data
    rf_phy_driver.o(i.rf_phy_dtm_zigbee_pkt_gen) refers to rf_phy_driver.o(.data) for .data
    rf_phy_driver.o(i.rf_phy_ini) refers to rf_phy_driver.o(i.rf_phy_ana_cfg) for rf_phy_ana_cfg
    rf_phy_driver.o(i.rf_phy_ini) refers to rf_phy_driver.o(i.rf_phy_set_txPower) for rf_phy_set_txPower
    rf_phy_driver.o(i.rf_phy_ini) refers to rf_phy_driver.o(i.rf_phy_bb_cfg) for rf_phy_bb_cfg
    rf_phy_driver.o(i.rf_phy_ini) refers to rf_phy_driver.o(.data) for .data
    rf_phy_driver.o(i.rf_phy_set_txPower) refers to common.o(i.subWriteReg) for subWriteReg
    rf_phy_driver.o(i.rf_rxDcoc_cfg) refers to rf_phy_driver.o(.data) for .data
    rf_phy_driver.o(i.rf_tpCal_cfg) refers to rf_phy_driver.o(i.rf_tp_cal) for rf_tp_cal
    rf_phy_driver.o(i.rf_tpCal_cfg) refers to rf_phy_driver.o(.data) for .data
    rf_phy_driver.o(i.rf_tpCal_cfg_avg) refers to rf_phy_driver.o(i.rf_tp_cal) for rf_tp_cal
    rf_phy_driver.o(i.rf_tpCal_cfg_avg) refers to rf_phy_driver.o(.data) for .data
    rf_phy_driver.o(i.rf_tpCal_gen_cap_arrary) refers to rf_phy_driver.o(i.rf_tp_cal) for rf_tp_cal
    rf_phy_driver.o(i.rf_tpCal_gen_cap_arrary) refers to rf_phy_driver.o(.data) for .data
    rf_phy_driver.o(i.rf_tpCal_gen_cap_arrary) refers to rf_phy_driver.o(.bss) for .bss
    rf_phy_driver.o(i.rf_tp_cal) refers to rf_phy_driver.o(.data) for .data
    rf_phy_driver.o(i.waitTimeUs) refers to rf_phy_driver.o(i.read_current_time) for read_current_time
    flash_ext.o(i.LOG_CHIP_ID) refers to my_printf.o(i.phy_printf) for phy_printf
    flash_ext.o(i.LOG_CHIP_ID) refers to flash_ext.o(.bss) for .bss
    flash_ext.o(i.LOG_CHIP_MADDR) refers to my_printf.o(i.phy_printf) for phy_printf
    flash_ext.o(i.LOG_CHIP_MADDR) refers to flash_ext.o(.data) for .data
    flash_ext.o(i.ProgramPage4) refers to flash_ext.o(i.check_internal_bus_busy) for check_internal_bus_busy
    flash_ext.o(i.ProgramPage4) refers to flash_ext.o(i.enable_spif_flash_write) for enable_spif_flash_write
    flash_ext.o(i.ProgramPage4) refers to flash_ext.o(i.disable_spif_flash_write) for disable_spif_flash_write
    flash_ext.o(i.ProgramPage64) refers to flash_ext.o(i.check_internal_bus_busy) for check_internal_bus_busy
    flash_ext.o(i.ProgramPage64) refers to flash_ext.o(i.enable_spif_flash_write) for enable_spif_flash_write
    flash_ext.o(i.ProgramPage64) refers to flash_ext.o(i.disable_spif_flash_write) for disable_spif_flash_write
    flash_ext.o(i.ProgramWord) refers to flash_ext.o(i.check_internal_bus_busy) for check_internal_bus_busy
    flash_ext.o(i.ProgramWord) refers to flash_ext.o(i.enable_spif_flash_write) for enable_spif_flash_write
    flash_ext.o(i.ProgramWord) refers to flash_ext.o(i.disable_spif_flash_write) for disable_spif_flash_write
    flash_ext.o(i.WriteFlash) refers to flash_ext.o(i.ProgramWord) for ProgramWord
    flash_ext.o(i.WriteFlashShort) refers to flash_ext.o(i.check_internal_bus_busy) for check_internal_bus_busy
    flash_ext.o(i.WriteFlashShort) refers to flash_ext.o(i.enable_spif_flash_write) for enable_spif_flash_write
    flash_ext.o(i.WriteFlashShort) refers to flash_ext.o(i.disable_spif_flash_write) for disable_spif_flash_write
    flash_ext.o(i.check_chip_id) refers to flash_ext.o(i.read_chip_id) for read_chip_id
    flash_ext.o(i.check_chip_id) refers to flash_ext.o(.bss) for .bss
    flash_ext.o(i.check_chip_mAddr) refers to flash_ext.o(i.read_chip_mAddr) for read_chip_mAddr
    flash_ext.o(i.check_chip_mAddr) refers to flash_ext.o(.data) for .data
    flash_ext.o(i.flash_block64_erase) refers to flash_ext.o(i.check_internal_bus_busy) for check_internal_bus_busy
    flash_ext.o(i.flash_block64_erase) refers to flash_ext.o(i.enable_spif_flash_write) for enable_spif_flash_write
    flash_ext.o(i.flash_block64_erase) refers to flash_ext.o(i.disable_spif_flash_write) for disable_spif_flash_write
    flash_ext.o(i.flash_sector_erase) refers to flash_ext.o(i.check_internal_bus_busy) for check_internal_bus_busy
    flash_ext.o(i.flash_sector_erase) refers to flash_ext.o(i.enable_spif_flash_write) for enable_spif_flash_write
    flash_ext.o(i.flash_sector_erase) refers to flash_ext.o(i.disable_spif_flash_write) for disable_spif_flash_write
    flash_ext.o(i.read_chip_id) refers to flash_ext.o(i.chip_id_one_bit_hot_convter) for chip_id_one_bit_hot_convter
    flash_ext.o(i.read_chip_id) refers to flash_ext.o(.bss) for .bss
    flash_ext.o(i.read_chip_mAddr) refers to flash_ext.o(i.chip_id_one_bit_hot_convter) for chip_id_one_bit_hot_convter
    flash_ext.o(i.read_chip_mAddr) refers to flash_ext.o(.data) for .data
    flash_ext.o(i.read_deviceID) refers to flash_ext.o(.data) for .data
    flash_ext.o(i.write_status_register) refers to flash_ext.o(i.check_internal_bus_busy) for check_internal_bus_busy
    flash_ext.o(i.write_status_register) refers to flash_ext.o(i.enable_spif_flash_write) for enable_spif_flash_write
    flash_ext.o(i.write_status_register) refers to flash_ext.o(i.disable_spif_flash_write) for disable_spif_flash_write
    aes.o(i.KeyExpansion) refers to memcpya.o(.text) for __aeabi_memcpy4
    aes.o(i.KeyExpansion) refers to aes.o(i.getByte) for getByte
    aes.o(i.KeyExpansion) refers to aes.o(i.getBit) for getBit
    aes.o(i.KeyExpansion) refers to aes.o(.constdata) for .constdata
    aes.o(i.KeyExpansion) refers to aes.o(.data) for sBox
    aes.o(i.MixColumns) refers to aes.o(i.xtime) for xtime
    aes.o(i.SubBytes) refers to aes.o(.data) for sBox
    aes.o(i.aes_ccm_phyplus_dec) refers to aes.o(i.LL_ENC_AES128_Encrypt_X) for LL_ENC_AES128_Encrypt_X
    aes.o(i.aes_ccm_phyplus_dec) refers to aes.o(i.xor128bit) for xor128bit
    aes.o(i.aes_ccm_phyplus_dec) refers to patch.o(.data) for s_company_id
    aes.o(i.affTrans) refers to memseta.o(.text) for __aeabi_memclr4
    aes.o(i.flash_load_parition) refers to aes.o(i.aes_ccm_phyplus_dec) for aes_ccm_phyplus_dec
    aes.o(i.is_crypto_app) refers to patch.o(i.finidv) for finidv
    aes.o(i.xtime) refers to memseta.o(.text) for __aeabi_memclr4
    aes.o(i.xtime) refers to aes.o(i.getBit) for getBit
    aes.o(i.xtime) refers to aes.o(i.getByte) for getByte
    entry.o(.ARM.Collect$$$$00000000) refers (Special) to entry10a.o(.ARM.Collect$$$$0000000D) for __rt_final_cpp
    entry.o(.ARM.Collect$$$$00000000) refers (Special) to entry11a.o(.ARM.Collect$$$$0000000F) for __rt_final_exit
    entry.o(.ARM.Collect$$$$00000000) refers (Special) to entry7b.o(.ARM.Collect$$$$00000008) for _main_clock
    entry.o(.ARM.Collect$$$$00000000) refers (Special) to entry8b.o(.ARM.Collect$$$$0000000A) for _main_cpp_init
    entry.o(.ARM.Collect$$$$00000000) refers (Special) to entry9a.o(.ARM.Collect$$$$0000000B) for _main_init
    entry.o(.ARM.Collect$$$$00000000) refers (Special) to entry5.o(.ARM.Collect$$$$00000004) for _main_scatterload
    entry.o(.ARM.Collect$$$$00000000) refers (Special) to entry2.o(.ARM.Collect$$$$00000001) for _main_stk
    entry2.o(.ARM.Collect$$$$00000001) refers to entry2.o(.ARM.Collect$$$$00002712) for __lit__00000000
    entry2.o(.ARM.Collect$$$$00002712) refers to startup_armcm0.o(STACK) for __initial_sp
    entry2.o(__vectab_stack_and_reset_area) refers to startup_armcm0.o(STACK) for __initial_sp
    entry2.o(__vectab_stack_and_reset_area) refers to entry.o(.ARM.Collect$$$$00000000) for __main
    entry5.o(.ARM.Collect$$$$00000004) refers to init.o(.text) for __scatterload
    entry9a.o(.ARM.Collect$$$$0000000B) refers to main.o(i.main) for main
    entry9b.o(.ARM.Collect$$$$0000000C) refers to main.o(i.main) for main
    init.o(.text) refers to entry5.o(.ARM.Collect$$$$00000004) for __main_after_scatterload


==============================================================================

Removing Unused input sections from the image.

    Removing main.o(.rev16_text), (4 bytes).
    Removing main.o(.revsh_text), (4 bytes).
    Removing devinfoservice.o(i.DevInfo_GetParameter), (112 bytes).
    Removing gattservapp.o(i.GATTServApp_DelService), (28 bytes).
    Removing gattservapp.o(i.GATTServApp_DeregisterService), (76 bytes).
    Removing gattservapp.o(i.GATTServApp_FindAttr), (34 bytes).
    Removing gattservapp.o(i.GATTServApp_GetParamValue), (4 bytes).
    Removing gattservapp.o(i.GATTServApp_GetParameter), (24 bytes).
    Removing gattservapp.o(i.GATTServApp_ProcessCharCfg), (152 bytes).
    Removing gattservapp.o(i.GATTServApp_RegisterForMsg), (12 bytes).
    Removing gattservapp.o(i.GATTServApp_SendServiceChangedInd), (36 bytes).
    Removing gattservapp.o(i.GATTServApp_SetParamValue), (2 bytes).
    Removing gattservapp.o(i.GATTServApp_SetParameter), (96 bytes).
    Removing gattservapp.o(i.GATTServApp_UpdateCharCfg), (24 bytes).
    Removing gapgattserver.o(i.GGS_DelService), (28 bytes).
    Removing gapgattserver.o(i.GGS_GetParamValue), (4 bytes).
    Removing gapgattserver.o(i.GGS_GetParameter), (68 bytes).
    Removing gapgattserver.o(i.GGS_RegisterAppCBs), (12 bytes).
    Removing gapgattserver.o(i.GGS_SetParamValue), (2 bytes).
    Removing peripheral.o(.rev16_text), (4 bytes).
    Removing peripheral.o(.revsh_text), (4 bytes).
    Removing peripheral.o(i.GAPRole_RegisterAppCBs), (16 bytes).
    Removing heartrateservice.o(.rev16_text), (4 bytes).
    Removing heartrateservice.o(.revsh_text), (4 bytes).
    Removing heartrateservice.o(i.HeartRate_AddService), (48 bytes).
    Removing heartrateservice.o(i.HeartRate_GetParameter), (36 bytes).
    Removing heartrateservice.o(i.HeartRate_MeasNotify), (44 bytes).
    Removing heartrateservice.o(i.HeartRate_Register), (12 bytes).
    Removing heartrateservice.o(i.HeartRate_SetParameter), (28 bytes).
    Removing heartrateservice.o(i.heartRate_ReadAttrCB), (52 bytes).
    Removing heartrateservice.o(i.heartRate_WriteAttrCB), (124 bytes).
    Removing heartrateservice.o(.constdata), (12 bytes).
    Removing ota_service.o(.rev16_text), (4 bytes).
    Removing ota_service.o(.revsh_text), (4 bytes).
    Removing ota_protocol.o(.rev16_text), (4 bytes).
    Removing ota_protocol.o(.revsh_text), (4 bytes).
    Removing ota_flash.o(.rev16_text), (4 bytes).
    Removing ota_flash.o(.revsh_text), (4 bytes).
    Removing jump_table.o(.rev16_text), (4 bytes).
    Removing jump_table.o(.revsh_text), (4 bytes).
    Removing osal_ota.o(.rev16_text), (4 bytes).
    Removing osal_ota.o(.revsh_text), (4 bytes).
    Removing ota_main.o(.rev16_text), (4 bytes).
    Removing ota_main.o(.revsh_text), (4 bytes).
    Removing ota.o(.rev16_text), (4 bytes).
    Removing ota.o(.revsh_text), (4 bytes).
    Removing common.o(.rev16_text), (4 bytes).
    Removing common.o(.revsh_text), (4 bytes).
    Removing common.o(i.WaitMs), (18 bytes).
    Removing common.o(i.WaitUs), (40 bytes).
    Removing common.o(i.char_array_cmp), (38 bytes).
    Removing common.o(i.hal_convert_char_to_dec), (36 bytes).
    Removing common.o(i.hal_convert_char_to_hex), (258 bytes).
    Removing common.o(i.hal_convert_hex_to_char), (128 bytes).
    Removing common.o(i.hal_convert_hex_to_char_wo_x), (118 bytes).
    Removing common.o(i.hal_copy_bin_from_flash_to_sram), (8 bytes).
    Removing common.o(i.hal_cpyMem32), (18 bytes).
    Removing common.o(i.hal_is_an_valid_number), (28 bytes).
    Removing common.o(i.hal_my_sizeof), (18 bytes).
    Removing common.o(i.hal_my_strcmp), (32 bytes).
    Removing common.o(i.hal_my_strlen), (16 bytes).
    Removing common.o(i.hal_read_current_time), (20 bytes).
    Removing common.o(i.hal_setMem), (12 bytes).
    Removing common.o(i.hal_system_soft_reset), (10 bytes).
    Removing gpio.o(.rev16_text), (4 bytes).
    Removing gpio.o(.revsh_text), (4 bytes).
    Removing gpio.o(i.hal_gpio_DS_control), (40 bytes).
    Removing gpio.o(i.hal_gpio_cfg_analog_io), (64 bytes).
    Removing gpio.o(i.hal_gpio_p00_to_hclk_div8_disable), (16 bytes).
    Removing gpio.o(i.hal_gpio_p00_to_hclk_div8_enable), (16 bytes).
    Removing gpio.o(i.hal_gpio_p01_to_pclk_div4_disable), (16 bytes).
    Removing gpio.o(i.hal_gpio_p01_to_pclk_div4_enable), (16 bytes).
    Removing gpio.o(i.hal_gpio_p24_to_rc32k_disable), (16 bytes).
    Removing gpio.o(i.hal_gpio_p24_to_rc32k_enable), (16 bytes).
    Removing gpio.o(i.hal_gpio_p25_to_xtal_clk32k_disable), (16 bytes).
    Removing gpio.o(i.hal_gpio_p25_to_xtal_clk32k_enable), (16 bytes).
    Removing gpio.o(i.hal_gpio_toggle), (60 bytes).
    Removing gpio.o(i.hal_gpio_write), (64 bytes).
    Removing gpio.o(i.hal_gpioin_disable), (72 bytes).
    Removing gpio.o(i.hal_gpioin_register), (48 bytes).
    Removing gpio.o(i.hal_gpioin_unregister), (36 bytes).
    Removing my_printf.o(.rev16_text), (4 bytes).
    Removing my_printf.o(.revsh_text), (4 bytes).
    Removing uart.o(.rev16_text), (4 bytes).
    Removing uart.o(.revsh_text), (4 bytes).
    Removing uart.o(i.hal_uart_get_tx_ready), (28 bytes).
    Removing uart.o(i.hal_uart_send_byte), (68 bytes).
    Removing uart.o(i.hal_uart_set_tx_buf), (60 bytes).
    Removing clock.o(.rev16_text), (4 bytes).
    Removing clock.o(.revsh_text), (4 bytes).
    Removing clock.o(i.clk_gate_disable), (20 bytes).
    Removing clock.o(i.clk_hclk), (12 bytes).
    Removing clock.o(i.hal_ms_intv), (40 bytes).
    Removing clock.o(i.hal_systick), (12 bytes).
    Removing flash.o(.rev16_text), (4 bytes).
    Removing flash.o(.revsh_text), (4 bytes).
    Removing flash.o(i.flash_erase_ucds), (92 bytes).
    Removing flash.o(i.flash_erase_ucds_all), (44 bytes).
    Removing flash.o(i.flash_read_ucds), (28 bytes).
    Removing flash.o(i.flash_read_ucds_block), (56 bytes).
    Removing flash.o(i.flash_read_ucds_block_byte), (132 bytes).
    Removing flash.o(i.flash_write_ucds), (52 bytes).
    Removing flash.o(i.flash_write_ucds_block), (60 bytes).
    Removing flash.o(i.flash_write_ucds_block_byte), (132 bytes).
    Removing pwrmgr.o(.rev16_text), (4 bytes).
    Removing pwrmgr.o(.revsh_text), (4 bytes).
    Removing pwrmgr.o(i.hal_pwrmgr_LowCurrentLdo_disable), (24 bytes).
    Removing pwrmgr.o(i.hal_pwrmgr_LowCurrentLdo_enable), (24 bytes).
    Removing pwrmgr.o(i.hal_pwrmgr_RAM_retention), (24 bytes).
    Removing pwrmgr.o(i.hal_pwrmgr_is_lock), (76 bytes).
    Removing pwrmgr.o(i.hal_pwrmgr_poweroff), (64 bytes).
    Removing pwrmgr.o(i.hal_pwrmgr_unregister), (64 bytes).
    Removing pwrmgr.o(i.system_on_handler), (156 bytes).
    Removing crc16.o(i.InvertUint16), (52 bytes).
    Removing crc16.o(i.InvertUint32), (38 bytes).
    Removing crc16.o(i.InvertUint8), (52 bytes).
    Removing crc16.o(i.crc16_CCITT), (100 bytes).
    Removing crc16.o(i.crc16_CCITT_FALSE), (56 bytes).
    Removing crc16.o(i.crc16_IBM), (100 bytes).
    Removing crc16.o(i.crc16_MAXIM), (108 bytes).
    Removing crc16.o(i.crc16_MODBUS), (104 bytes).
    Removing crc16.o(i.crc16_USB), (108 bytes).
    Removing crc16.o(i.crc16_X25), (108 bytes).
    Removing crc16.o(i.crc16_XMODEM), (52 bytes).
    Removing startup_armcm0.o(HEAP), (256 bytes).
    Removing system_armcm0.o(.rev16_text), (4 bytes).
    Removing system_armcm0.o(.revsh_text), (4 bytes).
    Removing system_armcm0.o(i.SystemCoreClockUpdate), (16 bytes).
    Removing patch.o(.rev16_text), (4 bytes).
    Removing patch.o(.revsh_text), (4 bytes).
    Removing patch.o(i.HCI_PPLUS_AdvEventDoneNoticeCmd), (24 bytes).
    Removing patch.o(i.HCI_PPLUS_ConnEventDoneNoticeCmd), (40 bytes).
    Removing patch.o(i.HCI_PPLUS_ExtendTRXCmd), (28 bytes).
    Removing patch.o(i.LL_PLUS_GetCurrentRSSI), (22 bytes).
    Removing patch.o(i.LL_PLUS_GetScanRequestExtendData), (40 bytes).
    Removing patch.o(i.LL_PLUS_GetScanerAddr), (28 bytes).
    Removing patch.o(i.LL_PLUS_LoadMACFromFlash), (48 bytes).
    Removing patch.o(i.LL_PLUS_PerStasReadByChn), (52 bytes).
    Removing patch.o(i.LL_PLUS_PerStatsReset), (20 bytes).
    Removing patch.o(i.LL_PLUS_SetScanRequestFilterCB), (12 bytes).
    Removing patch.o(i.LL_PLUS_SetScanRsqData), (44 bytes).
    Removing patch.o(i.LL_PLUS_SetScanRsqDataByIndex), (16 bytes).
    Removing patch.o(i.LOG_PATCH_DATA_TIME), (76 bytes).
    Removing patch.o(i.check_PerStatsProcess), (268 bytes).
    Removing patch.o(i.get_time_dlt_from_rtcRC), (56 bytes).
    Removing patch.o(i.pplus_LoadMACFromChipMAddr), (40 bytes).
    Removing patch.o(i.pplus_enter_programming_mode), (112 bytes).
    Removing patch.o(i.rflib_vesion), (18 bytes).
    Removing patch.o(i.test_rc32k_calibration), (300 bytes).
    Removing patch.o(.constdata), (21 bytes).
    Removing patch.o(.data), (4 bytes).
    Removing patch.o(.data), (1 bytes).
    Removing patch.o(.data), (4 bytes).
    Removing patch.o(.data), (4 bytes).
    Removing patch.o(.data), (4 bytes).
    Removing rf_phy_driver.o(.rev16_text), (4 bytes).
    Removing rf_phy_driver.o(.revsh_text), (4 bytes).
    Removing rf_phy_driver.o(i.read_current_time), (20 bytes).
    Removing rf_phy_driver.o(i.rf_phy_clk_cfg), (12 bytes).
    Removing rf_phy_driver.o(i.rf_phy_direct_test), (764 bytes).
    Removing rf_phy_driver.o(i.rf_phy_dtm_cmd_parse), (752 bytes).
    Removing rf_phy_driver.o(i.rf_phy_dtm_evt_send), (192 bytes).
    Removing rf_phy_driver.o(i.rf_phy_dtm_ext_acc_code_set), (12 bytes).
    Removing rf_phy_driver.o(i.rf_phy_dtm_ext_rx_demod_burst), (320 bytes).
    Removing rf_phy_driver.o(i.rf_phy_dtm_ext_tx_mod_burst), (164 bytes).
    Removing rf_phy_driver.o(i.rf_phy_dtm_ext_tx_modulation), (64 bytes).
    Removing rf_phy_driver.o(i.rf_phy_dtm_ext_tx_singleTone), (60 bytes).
    Removing rf_phy_driver.o(i.rf_phy_dtm_init), (40 bytes).
    Removing rf_phy_driver.o(i.rf_phy_dtm_stop), (56 bytes).
    Removing rf_phy_driver.o(i.rf_phy_dtm_trigged), (716 bytes).
    Removing rf_phy_driver.o(i.rf_phy_dtm_zigbee_pkt_gen), (120 bytes).
    Removing rf_phy_driver.o(i.rf_tpCal_cfg), (44 bytes).
    Removing rf_phy_driver.o(i.rf_tpCal_cfg_avg), (176 bytes).
    Removing rf_phy_driver.o(i.waitTimeUs), (40 bytes).
    Removing flash_ext.o(.rev16_text), (4 bytes).
    Removing flash_ext.o(.revsh_text), (4 bytes).
    Removing flash_ext.o(i.LOG_CHIP_ID), (196 bytes).
    Removing flash_ext.o(i.LOG_CHIP_MADDR), (172 bytes).
    Removing flash_ext.o(i.ProgramPage4), (76 bytes).
    Removing flash_ext.o(i.ProgramPage64), (288 bytes).
    Removing flash_ext.o(i.ReadFlash), (52 bytes).
    Removing flash_ext.o(i.WriteFlashShort), (88 bytes).
    Removing flash_ext.o(i.close_spif), (12 bytes).
    Removing flash_ext.o(i.init_spif), (28 bytes).
    Removing flash_ext.o(i.read_deviceID), (52 bytes).
    Removing flash_ext.o(i.read_status_register), (36 bytes).
    Removing flash_ext.o(i.release_flash_deep_sleep), (32 bytes).
    Removing flash_ext.o(i.set_flash_deep_sleep), (32 bytes).
    Removing flash_ext.o(i.write_status_register), (52 bytes).
    Removing aes.o(.rev16_text), (4 bytes).
    Removing aes.o(.revsh_text), (4 bytes).
    Removing aes.o(i.AddRoundKey), (48 bytes).
    Removing aes.o(i.FFmul), (88 bytes).
    Removing aes.o(i.KeyExpansion), (700 bytes).
    Removing aes.o(i.MixColumns), (436 bytes).
    Removing aes.o(i.ShiftRows), (104 bytes).
    Removing aes.o(i.SubBytes), (68 bytes).
    Removing aes.o(i.affTrans), (252 bytes).
    Removing aes.o(i.getBit), (28 bytes).
    Removing aes.o(i.getByte), (28 bytes).
    Removing aes.o(i.printfStats), (2 bytes).
    Removing aes.o(i.xtime), (230 bytes).
    Removing aes.o(.constdata), (32 bytes).
    Removing aes.o(.data), (512 bytes).
    Removing devinfoservice.o(i.__ARM_common_switch8), (26 bytes).
    Removing patch.o(i.__psr), (6 bytes).

206 unused section(s) (total 13500 bytes) removed from the image.

==============================================================================

Adding Veneers to the image

    Adding TT veneer (12 bytes, Long) for call to 'osal_memcpy' from devinfoservice.o(i.DevInfo_SetParameter).
    Adding TT veneer (12 bytes, Long) for call to '__ARM_common_switch8' from peripheral.o(i.GAPRole_GetParameter).
    Adding TT veneer (12 bytes, Long) for call to 'GAP_GetParamValue' from peripheral.o(i.GAPRole_GetParameter).
    Adding TT veneer (12 bytes, Long) for call to 'GAP_RegisterForHCIMsgs' from peripheral.o(i.GAPRole_Init).
    Adding TT veneer (12 bytes, Long) for call to 'osal_memset' from peripheral.o(i.GAPRole_Init).
    Adding TT veneer (12 bytes, Long) for call to 'osal_msg_receive' from peripheral.o(i.GAPRole_ProcessEvent).
    Adding TT veneer (12 bytes, Long) for call to 'osal_msg_deallocate' from peripheral.o(i.GAPRole_ProcessEvent).
    Adding TT veneer (12 bytes, Long) for call to 'GAP_MakeDiscoverable' from peripheral.o(i.GAPRole_ProcessEvent).
    Adding TT veneer (12 bytes, Long) for call to 'HCI_ReadRssiCmd' from peripheral.o(i.GAPRole_ProcessEvent).
    Adding TT veneer (12 bytes, Long) for call to 'osal_start_timerEx' from peripheral.o(i.GAPRole_ProcessEvent).
    Adding TT veneer (12 bytes, Long) for call to 'osal_stop_timerEx' from peripheral.o(i.GAPRole_SendUpdateParam).
    Adding TT veneer (12 bytes, Long) for call to 'GAP_EndDiscoverable' from peripheral.o(i.GAPRole_SetParameter).
    Adding TT veneer (12 bytes, Long) for call to 'osal_set_event' from peripheral.o(i.GAPRole_SetParameter).
    Adding TT veneer (12 bytes, Long) for call to 'GAP_UpdateAdvertisingData' from peripheral.o(i.GAPRole_SetParameter).
    Adding TT veneer (12 bytes, Long) for call to 'osal_get_timeoutEx' from peripheral.o(i.GAPRole_SetParameter).
    Adding TT veneer (12 bytes, Long) for call to 'GAP_SetParamValue' from peripheral.o(i.GAPRole_SetParameter).
    Adding TT veneer (12 bytes, Long) for call to 'GAP_TerminateLinkReq' from peripheral.o(i.GAPRole_TerminateConnection).
    Adding TT veneer (12 bytes, Long) for call to 'GAP_ParamsInit' from gap.o(i.GAP_DeviceInit).
    Adding TT veneer (12 bytes, Long) for call to 'GAP_SecParamsInit' from gap.o(i.GAP_DeviceInit).
    Adding TT veneer (12 bytes, Long) for call to 'GAP_PeriDevMgrInit' from gap.o(i.GAP_DeviceInit).
    Adding TT veneer (12 bytes, Long) for call to 'SM_ResponderInit' from gap.o(i.GAP_DeviceInit).
    Adding TT veneer (12 bytes, Long) for call to 'GATT_RegisterForReq' from gattservapp.o(i.GATTServApp_Init).
    Adding TT veneer (12 bytes, Long) for call to 'linkDB_Register' from gattservapp.o(i.GATTServApp_Init).
    Adding TT veneer (12 bytes, Long) for call to 'GATT_FindHandle' from gattservapp.o(i.GATTServApp_ReadAttr).
    Adding TT veneer (12 bytes, Long) for call to 'GATT_FindNextAttr' from gattservapp.o(i.GATTServApp_ReadAttr).
    Adding TT veneer (12 bytes, Long) for call to 'ATT_CompareUUID' from gattservapp.o(i.GATTServApp_ReadAttr).
    Adding TT veneer (12 bytes, Long) for call to 'osal_strlen' from gattservapp.o(i.GATTServApp_ReadAttr).
    Adding TT veneer (12 bytes, Long) for call to 'GATT_RegisterService' from gattservapp.o(i.GATTServApp_RegisterService).
    Adding TT veneer (12 bytes, Long) for call to 'osal_mem_alloc' from gattservapp.o(i.GATTServApp_RegisterService).
    Adding TT veneer (12 bytes, Long) for call to 'osal_msg_allocate' from gattservapp.o(i.GATTServApp_SendCCCUpdatedEvent).
    Adding TT veneer (12 bytes, Long) for call to 'osal_msg_send' from gattservapp.o(i.GATTServApp_SendCCCUpdatedEvent).
    Adding TT veneer (12 bytes, Long) for call to 'linkDB_State' from heartrateservice.o(i.HeartRate_HandleConnStatusCB).
    Adding TT veneer (12 bytes, Long) for call to 'LL_ENC_LoadKey' from patch.o(i.LL_ENC_Decrypt0).
    Adding TT veneer (12 bytes, Long) for call to 'LL_ENC_GenerateNonce' from patch.o(i.LL_ENC_Decrypt0).
    Adding TT veneer (12 bytes, Long) for call to 'read_current_fine_time' from patch.o(i.LL_IRQHandler1).
    Adding TT veneer (12 bytes, Long) for call to 'll_debug_output' from patch.o(i.LL_IRQHandler1).
    Adding TT veneer (12 bytes, Long) for call to 'll_hw_get_irq_status' from patch.o(i.LL_IRQHandler1).
    Adding TT veneer (12 bytes, Long) for call to 'll_hw_get_tr_mode' from patch.o(i.LL_IRQHandler1).
    Adding TT veneer (12 bytes, Long) for call to 'll_hw_clr_irq' from patch.o(i.LL_IRQHandler1).
    Adding TT veneer (12 bytes, Long) for call to 'll_hw_read_rfifo' from patch.o(i.LL_IRQHandler1).
    Adding TT veneer (12 bytes, Long) for call to 'll_hw_set_stx' from patch.o(i.LL_IRQHandler1).
    Adding TT veneer (12 bytes, Long) for call to 'll_hw_set_trx_settle' from patch.o(i.LL_IRQHandler1).
    Adding TT veneer (12 bytes, Long) for call to 'll_hw_go' from patch.o(i.LL_IRQHandler1).
    Adding TT veneer (12 bytes, Long) for call to 'll_hw_rst_rfifo' from patch.o(i.LL_IRQHandler1).
    Adding TT veneer (12 bytes, Long) for call to 'll_hw_rst_tfifo' from patch.o(i.LL_IRQHandler1).
    Adding TT veneer (12 bytes, Long) for call to 'll_hw_write_tfifo' from patch.o(i.LL_IRQHandler1).
    Adding TT veneer (12 bytes, Long) for call to 'move_to_slave_function' from patch.o(i.LL_IRQHandler1).
    Adding TT veneer (12 bytes, Long) for call to 'll_schedule_next_event' from patch.o(i.LL_IRQHandler1).
    Adding TT veneer (12 bytes, Long) for call to 'll_hw_get_loop_cycle' from patch.o(i.LL_IRQHandler1).
    Adding TT veneer (12 bytes, Long) for call to '__aeabi_uidivmod' from patch.o(i.LL_IRQHandler1).
    Adding TT veneer (12 bytes, Long) for call to 'll_hw_get_anchor' from patch.o(i.LL_IRQHandler1).
    Adding TT veneer (12 bytes, Long) for call to 'll_hw_get_txAck' from patch.o(i.LL_IRQHandler1).
    Adding TT veneer (12 bytes, Long) for call to 'll_hw_update' from patch.o(i.LL_IRQHandler1).
    Adding TT veneer (12 bytes, Long) for call to 'll_hw_get_nAck' from patch.o(i.LL_IRQHandler1).
    Adding TT veneer (12 bytes, Long) for call to 'll_hw_get_rxPkt_stats' from patch.o(i.LL_IRQHandler1).
    Adding TT veneer (12 bytes, Long) for call to 'll_hw_process_RTO' from patch.o(i.LL_IRQHandler1).
    Adding TT veneer (12 bytes, Long) for call to 'll_hw_read_tfifo_rtlp' from patch.o(i.LL_IRQHandler1).
    Adding TT veneer (12 bytes, Long) for call to 'll_read_rxfifo' from patch.o(i.LL_IRQHandler1).
    Adding TT veneer (12 bytes, Long) for call to 'llSlaveEvt_TaskEndOk' from patch.o(i.LL_IRQHandler1).
    Adding TT veneer (12 bytes, Long) for call to 'llResetRfCounters' from patch.o(i.LL_slave_conn_event1).
    Adding TT veneer (12 bytes, Long) for call to 'set_crc_seed' from patch.o(i.LL_slave_conn_event1).
    Adding TT veneer (12 bytes, Long) for call to 'set_access_address' from patch.o(i.LL_slave_conn_event1).
    Adding TT veneer (12 bytes, Long) for call to 'set_channel' from patch.o(i.LL_slave_conn_event1).
    Adding TT veneer (12 bytes, Long) for call to 'set_whiten_seed' from patch.o(i.LL_slave_conn_event1).
    Adding TT veneer (12 bytes, Long) for call to 'll_hw_set_rx_timeout_1st' from patch.o(i.LL_slave_conn_event1).
    Adding TT veneer (12 bytes, Long) for call to 'll_hw_set_loop_timeout' from patch.o(i.LL_slave_conn_event1).
    Adding TT veneer (12 bytes, Long) for call to 'll_hw_set_loop_nack_num' from patch.o(i.LL_slave_conn_event1).
    Adding TT veneer (12 bytes, Long) for call to 'll_hw_ign_rfifo' from patch.o(i.LL_slave_conn_event1).
    Adding TT veneer (12 bytes, Long) for call to 'll_generateTxBuffer' from patch.o(i.LL_slave_conn_event1).
    Adding TT veneer (12 bytes, Long) for call to 'll_hw_config' from patch.o(i.LL_slave_conn_event1).
    Adding TT veneer (12 bytes, Long) for call to 'clearTimerInt' from patch.o(i.TIM0_IRQHandler1).
    Adding TT veneer (12 bytes, Long) for call to 'clear_timer' from patch.o(i.TIM0_IRQHandler1).
    Adding TT veneer (12 bytes, Long) for call to 'LL_evt_schedule' from patch.o(i.TIM0_IRQHandler1).
    Adding TT veneer (12 bytes, Long) for call to 'config_RTC' from patch.o(i.enterSleepProcess1).
    Adding TT veneer (12 bytes, Long) for call to 'set_sleep_flag' from patch.o(i.enterSleepProcess1).
    Adding TT veneer (12 bytes, Long) for call to 'enter_sleep_off_mode' from patch.o(i.enterSleepProcess1).
    Adding TT veneer (12 bytes, Long) for call to 'L2CAP_ConnParamUpdateReq' from peripheral.o(i.gapRole_startConnUpdate).
    Adding TT veneer (12 bytes, Long) for call to 'ATT_ExecuteWriteRsp' from gattservapp.o(i.gattServApp_ProcessExecuteWriteReq).
    Adding TT veneer (12 bytes, Long) for call to 'GATT_FindHandleUUID' from gattservapp.o(i.gattServApp_ProcessFindByTypeValueReq).
    Adding TT veneer (12 bytes, Long) for call to 'osal_memcmp' from gattservapp.o(i.gattServApp_ProcessFindByTypeValueReq).
    Adding TT veneer (12 bytes, Long) for call to 'ATT_FindByTypeValueRsp' from gattservapp.o(i.gattServApp_ProcessFindByTypeValueReq).
    Adding TT veneer (12 bytes, Long) for call to 'ATT_ExchangeMTURsp' from gattservapp.o(i.gattServApp_ProcessMsg).
    Adding TT veneer (12 bytes, Long) for call to 'ATT_ReadRsp' from gattservapp.o(i.gattServApp_ProcessMsg).
    Adding TT veneer (12 bytes, Long) for call to 'ATT_ReadBlobRsp' from gattservapp.o(i.gattServApp_ProcessMsg).
    Adding TT veneer (12 bytes, Long) for call to 'ATT_ErrorRsp' from gattservapp.o(i.gattServApp_ProcessMsg).
    Adding TT veneer (12 bytes, Long) for call to 'GATT_AppCompletedMsg' from gattservapp.o(i.gattServApp_ProcessMsg).
    Adding TT veneer (12 bytes, Long) for call to 'ATT_PrepareWriteRsp' from gattservapp.o(i.gattServApp_ProcessPrepareWriteReq).
    Adding TT veneer (12 bytes, Long) for call to 'GATT_VerifyReadPermissions' from gattservapp.o(i.gattServApp_ProcessReadByGrpTypeReq).
    Adding TT veneer (12 bytes, Long) for call to 'ATT_ReadByGrpTypeRsp' from gattservapp.o(i.gattServApp_ProcessReadByGrpTypeReq).
    Adding TT veneer (12 bytes, Long) for call to 'ATT_ReadByTypeRsp' from gattservapp.o(i.gattServApp_ProcessReadByTypeReq).
    Adding TT veneer (12 bytes, Long) for call to 'ATT_ReadMultiRsp' from gattservapp.o(i.gattServApp_ProcessReadMultiReq).
    Adding TT veneer (12 bytes, Long) for call to 'ATT_WriteRsp' from gattservapp.o(i.gattServApp_ProcessWriteReq).
    Adding TT veneer (12 bytes, Long) for call to 'disableSleep' from pwrmgr.o(i.hal_pwrmgr_init).
    Adding TT veneer (12 bytes, Long) for call to 'enableSleep' from pwrmgr.o(i.hal_pwrmgr_init).
    Adding TT veneer (12 bytes, Long) for call to 'boot_init' from patch.o(i.hal_rom_code_ini).
    Adding TT veneer (12 bytes, Long) for call to 'wakeup_init' from patch.o(i.hal_rom_code_ini).
    Adding TT veneer (12 bytes, Long) for call to 'getRxBufferSize' from patch.o(i.llProcessRxData1).
    Adding TT veneer (12 bytes, Long) for call to 'get_rx_read_ptr' from patch.o(i.llProcessRxData1).
    Adding TT veneer (12 bytes, Long) for call to 'LL_RX_bm_alloc' from patch.o(i.llProcessRxData1).
    Adding TT veneer (12 bytes, Long) for call to 'LL_ENC_Decrypt' from patch.o(i.llProcessRxData1).
    Adding TT veneer (12 bytes, Long) for call to 'LL_RxDataCompleteCback' from patch.o(i.llProcessRxData1).
    Adding TT veneer (12 bytes, Long) for call to 'update_rx_read_ptr' from patch.o(i.llProcessRxData1).
    Adding TT veneer (12 bytes, Long) for call to 'llConnTerminate' from patch.o(i.llProcessRxData1).
    Adding TT veneer (12 bytes, Long) for call to 'osal_bm_free' from patch.o(i.llProcessRxData1).
    Adding TT veneer (12 bytes, Long) for call to 'llProcessMasterControlPacket' from patch.o(i.llProcessRxData1).
    Adding TT veneer (12 bytes, Long) for call to 'llProcessSlaveControlPacket' from patch.o(i.llProcessRxData1).
    Adding TT veneer (12 bytes, Long) for call to 'llMemCopySrc' from patch.o(i.llProcessSlaveControlPacket1).
    Adding TT veneer (12 bytes, Long) for call to 'LL_ENC_ReverseBytes' from patch.o(i.llProcessSlaveControlPacket1).
    Adding TT veneer (12 bytes, Long) for call to 'LL_ENC_GenDeviceSKD' from patch.o(i.llProcessSlaveControlPacket1).
    Adding TT veneer (12 bytes, Long) for call to 'LL_ENC_GenDeviceIV' from patch.o(i.llProcessSlaveControlPacket1).
    Adding TT veneer (12 bytes, Long) for call to 'LL_ENC_GenerateTrueRandNum' from patch.o(i.llProcessSlaveControlPacket1).
    Adding TT veneer (12 bytes, Long) for call to 'llEnqueueCtrlPkt' from patch.o(i.llProcessSlaveControlPacket1).
    Adding TT veneer (12 bytes, Long) for call to 'llDequeueCtrlPkt' from patch.o(i.llProcessSlaveControlProcedures0).
    Adding TT veneer (12 bytes, Long) for call to 'LL_EncLtkReqCback' from patch.o(i.llProcessSlaveControlProcedures0).
    Adding TT veneer (12 bytes, Long) for call to 'LL_ENC_AES128_Encrypt' from patch.o(i.llProcessSlaveControlProcedures0).
    Adding TT veneer (12 bytes, Long) for call to 'llReplaceCtrlPkt' from patch.o(i.llProcessSlaveControlProcedures0).
    Adding TT veneer (12 bytes, Long) for call to 'llSetupStartEncReq' from patch.o(i.llProcessSlaveControlProcedures0).
    Adding TT veneer (12 bytes, Long) for call to 'llSetupStartEncRsp' from patch.o(i.llProcessSlaveControlProcedures0).
    Adding TT veneer (12 bytes, Long) for call to 'LL_EncChangeCback' from patch.o(i.llProcessSlaveControlProcedures0).
    Adding TT veneer (12 bytes, Long) for call to 'LL_EncKeyRefreshCback' from patch.o(i.llProcessSlaveControlProcedures0).
    Adding TT veneer (12 bytes, Long) for call to 'llSetupPauseEncRsp' from patch.o(i.llProcessSlaveControlProcedures0).
    Adding TT veneer (12 bytes, Long) for call to 'llSetupFeatureSetReq' from patch.o(i.llProcessSlaveControlProcedures0).
    Adding TT veneer (12 bytes, Long) for call to 'LL_ReadRemoteUsedFeaturesCompleteCback' from patch.o(i.llProcessSlaveControlProcedures0).
    Adding TT veneer (12 bytes, Long) for call to 'llSetupVersionIndReq' from patch.o(i.llProcessSlaveControlProcedures0).
    Adding TT veneer (12 bytes, Long) for call to 'LL_ReadRemoteVersionInfoCback' from patch.o(i.llProcessSlaveControlProcedures0).
    Adding TT veneer (12 bytes, Long) for call to 'llSetupDirectedAdvEvt' from patch.o(i.llSetupAdv1).
    Adding TT veneer (12 bytes, Long) for call to 'llSetupUndirectedAdvEvt' from patch.o(i.llSetupAdv1).
    Adding TT veneer (12 bytes, Long) for call to 'llSetupNonConnectableAdvEvt' from patch.o(i.llSetupAdv1).
    Adding TT veneer (12 bytes, Long) for call to 'llSetupScannableAdvEvt' from patch.o(i.llSetupAdv1).
    Adding TT veneer (12 bytes, Long) for call to 'llGetNextAdvChn' from patch.o(i.llSetupDirectedAdvEvt1).
    Adding TT veneer (12 bytes, Long) for call to 'LL_Reset' from patch.o(i.llSetupDirectedAdvEvt1).
    Adding TT veneer (12 bytes, Long) for call to 'set_max_length' from patch.o(i.llSetupDirectedAdvEvt1).
    Adding TT veneer (12 bytes, Long) for call to 'll_hw_set_trx' from patch.o(i.llSetupDirectedAdvEvt1).
    Adding TT veneer (12 bytes, Long) for call to 'getTxBufferSize' from patch.o(i.llSetupEncRsp0).
    Adding TT veneer (12 bytes, Long) for call to 'llMemCopyDst' from patch.o(i.llSetupEncRsp0).
    Adding TT veneer (12 bytes, Long) for call to 'LL_ENC_Encrypt' from patch.o(i.llSetupFeatureSetRsp1).
    Adding TT veneer (12 bytes, Long) for call to 'llCheckForLstoDuringSL' from patch.o(i.llSetupNextSlaveEvent1).
    Adding TT veneer (12 bytes, Long) for call to 'llEventInRange' from patch.o(i.llSetupNextSlaveEvent1).
    Adding TT veneer (12 bytes, Long) for call to 'llConvertLstoToEvent' from patch.o(i.llSetupNextSlaveEvent1).
    Adding TT veneer (12 bytes, Long) for call to 'llEventDelta' from patch.o(i.llSetupNextSlaveEvent1).
    Adding TT veneer (12 bytes, Long) for call to 'LL_ConnParamUpdateCback' from patch.o(i.llSetupNextSlaveEvent1).
    Adding TT veneer (12 bytes, Long) for call to 'llConvertCtrlProcTimeoutToEvent' from patch.o(i.llSetupNextSlaveEvent1).
    Adding TT veneer (12 bytes, Long) for call to 'llCalcTimerDrift' from patch.o(i.llSetupNextSlaveEvent1).
    Adding TT veneer (12 bytes, Long) for call to 'llSetNextDataChan' from patch.o(i.llSetupNextSlaveEvent1).
    Adding TT veneer (12 bytes, Long) for call to 'get_timer3_count' from patch.o(i.llSetupUndirectedAdvEvt1).
    Adding TT veneer (12 bytes, Long) for call to 'llProcessRxData' from patch.o(i.llSlaveEvt_TaskEndOk1).
    Adding TT veneer (12 bytes, Long) for call to 'llProcessSlaveControlProcedures' from patch.o(i.llSlaveEvt_TaskEndOk1).
    Adding TT veneer (12 bytes, Long) for call to 'llProcessTxData' from patch.o(i.llSlaveEvt_TaskEndOk1).
    Adding TT veneer (12 bytes, Long) for call to 'llSetupNextSlaveEvent' from patch.o(i.llSlaveEvt_TaskEndOk1).
    Adding TT veneer (12 bytes, Long) for call to 'LL_set_default_conn_params' from patch.o(i.move_to_slave_function1).
    Adding TT veneer (12 bytes, Long) for call to 'reset_conn_buf' from patch.o(i.move_to_slave_function1).
    Adding TT veneer (12 bytes, Long) for call to 'llProcessChanMap' from patch.o(i.move_to_slave_function1).
    Adding TT veneer (12 bytes, Long) for call to 'llGetNextDataChan' from patch.o(i.move_to_slave_function1).
    Adding TT veneer (12 bytes, Long) for call to 'LL_Init' from osal_ota.o(i.osalInitTasks).
    Adding TT veneer (12 bytes, Long) for call to 'HCI_Init' from osal_ota.o(i.osalInitTasks).
    Adding TT veneer (12 bytes, Long) for call to 'L2CAP_Init' from osal_ota.o(i.osalInitTasks).
    Adding TT veneer (12 bytes, Long) for call to 'GAP_Init' from osal_ota.o(i.osalInitTasks).
    Adding TT veneer (12 bytes, Long) for call to 'GATT_Init' from osal_ota.o(i.osalInitTasks).
    Adding TT veneer (12 bytes, Long) for call to 'SM_Init' from osal_ota.o(i.osalInitTasks).
    Adding TT veneer (12 bytes, Long) for call to 'isSleepAllow' from patch.o(i.osal_pwrmgr_powerconserve1).
    Adding TT veneer (12 bytes, Long) for call to 'osal_next_timeout' from patch.o(i.osal_pwrmgr_powerconserve1).
    Adding TT veneer (12 bytes, Long) for call to 'read_LL_remainder_time' from patch.o(i.osal_pwrmgr_powerconserve1).
    Adding TT veneer (12 bytes, Long) for call to 'getSleepMode' from patch.o(i.osal_pwrmgr_powerconserve1).
    Adding TT veneer (12 bytes, Long) for call to 'enterSleepProcess' from patch.o(i.osal_pwrmgr_powerconserve1).
    Adding TT veneer (12 bytes, Long) for call to 'GATT_Notification' from ota_service.o(i.ota_Notify).
    Adding TT veneer (12 bytes, Long) for call to 'osal_init_system' from ota_main.o(i.ota_main).
    Adding TT veneer (12 bytes, Long) for call to 'osal_pwrmgr_device' from ota_main.o(i.ota_main).
    Adding TT veneer (12 bytes, Long) for call to 'osal_start_system' from ota_main.o(i.ota_main).
    Adding TT veneer (12 bytes, Long) for call to 'strlen' from my_printf.o(i.phy_printf).
    Adding TT veneer (12 bytes, Long) for call to 'll_hw_set_rx_tx_interval' from patch.o(i.wakeupProcess1).
    Adding TT veneer (12 bytes, Long) for call to 'll_hw_set_tx_rx_interval' from patch.o(i.wakeupProcess1).
    Adding TT veneer (12 bytes, Long) for call to 'rf_init' from patch.o(i.wakeupProcess1).
    Adding TT veneer (12 bytes, Long) for call to 'osalTimeUpdate' from patch.o(i.wakeupProcess1).
    Adding TT veneer (12 bytes, Long) for call to 'set_timer1' from patch.o(i.wakeupProcess1).
    Adding TT veneer (12 bytes, Long) for call to 'app_wakeup_process' from patch.o(i.wakeupProcess1).
    Adding TT veneer (12 bytes, Long) for call to 'set_timer' from patch.o(i.wakeup_init1).
    Adding TT veneer (12 bytes, Long) for call to 'll_hw_set_empty_head' from patch.o(i.wakeup_init1).
    Adding TT veneer (12 bytes, Long) for call to 'll_hw_set_rx_timeout' from patch.o(i.wakeup_init1).
    Adding TT veneer (12 bytes, Long) for call to 'll_hw_set_timing' from patch.o(i.wakeup_init1).
    Adding TT veneer (12 bytes, Long) for call to 'jump_to_application' from ota_protocol.o(ota_app_loader_area).

180 Veneer(s) (total 2160 bytes) added to the image.

==============================================================================

Image Symbol Table

    Local Symbols

    Symbol Name                              Value     Ov Type        Size  Object(Section)

    ../clib/../cmprslib/zerorunl2.c          0x00000000   Number         0  __dczerorl2.o ABSOLUTE
    ../clib/microlib/init/entry.s            0x00000000   Number         0  entry7a.o ABSOLUTE
    ../clib/microlib/init/entry.s            0x00000000   Number         0  entry9a.o ABSOLUTE
    ../clib/microlib/init/entry.s            0x00000000   Number         0  entry.o ABSOLUTE
    ../clib/microlib/init/entry.s            0x00000000   Number         0  entry8b.o ABSOLUTE
    ../clib/microlib/init/entry.s            0x00000000   Number         0  entry8a.o ABSOLUTE
    ../clib/microlib/init/entry.s            0x00000000   Number         0  entry7b.o ABSOLUTE
    ../clib/microlib/init/entry.s            0x00000000   Number         0  entry5.o ABSOLUTE
    ../clib/microlib/init/entry.s            0x00000000   Number         0  entry10a.o ABSOLUTE
    ../clib/microlib/init/entry.s            0x00000000   Number         0  entry10b.o ABSOLUTE
    ../clib/microlib/init/entry.s            0x00000000   Number         0  entry11a.o ABSOLUTE
    ../clib/microlib/init/entry.s            0x00000000   Number         0  entry2.o ABSOLUTE
    ../clib/microlib/init/entry.s            0x00000000   Number         0  entry11b.o ABSOLUTE
    ../clib/microlib/init/entry.s            0x00000000   Number         0  entry9b.o ABSOLUTE
    ../clib/microlib/string/memcpy.c         0x00000000   Number         0  memcpyb.o ABSOLUTE
    ../clib/microlib/string/memcpy.c         0x00000000   Number         0  memcpya.o ABSOLUTE
    ../clib/microlib/string/memset.c         0x00000000   Number         0  memseta.o ABSOLUTE
    ../clib/microlib/unhosted.c              0x00000000   Number         0  uread4.o ABSOLUTE
    ..\..\..\components\driver\clock\clock.c 0x00000000   Number         0  clock.o ABSOLUTE
    ..\..\..\components\driver\common\common.c 0x00000000   Number         0  common.o ABSOLUTE
    ..\..\..\components\driver\flash\flash.c 0x00000000   Number         0  flash.o ABSOLUTE
    ..\..\..\components\driver\gpio\gpio.c   0x00000000   Number         0  gpio.o ABSOLUTE
    ..\..\..\components\driver\log\my_printf.c 0x00000000   Number         0  my_printf.o ABSOLUTE
    ..\..\..\components\driver\pwrmgr\pwrmgr.c 0x00000000   Number         0  pwrmgr.o ABSOLUTE
    ..\..\..\components\driver\uart\uart.c   0x00000000   Number         0  uart.o ABSOLUTE
    ..\..\..\components\libraries\crc16\crc16.c 0x00000000   Number         0  crc16.o ABSOLUTE
    ..\..\..\components\profiles\DevInfo\devinfoservice.c 0x00000000   Number         0  devinfoservice.o ABSOLUTE
    ..\..\..\components\profiles\GATT\gattservapp.c 0x00000000   Number         0  gattservapp.o ABSOLUTE
    ..\..\..\components\profiles\Roles\gap.c 0x00000000   Number         0  gap.o ABSOLUTE
    ..\..\..\components\profiles\Roles\gapgattserver.c 0x00000000   Number         0  gapgattserver.o ABSOLUTE
    ..\..\..\components\profiles\Roles\peripheral.c 0x00000000   Number         0  peripheral.o ABSOLUTE
    ..\..\..\components\profiles\hrs\heartrateservice.c 0x00000000   Number         0  heartrateservice.o ABSOLUTE
    ..\..\..\components\profiles\ota\ota_flash.c 0x00000000   Number         0  ota_flash.o ABSOLUTE
    ..\..\..\components\profiles\ota\ota_protocol.c 0x00000000   Number         0  ota_protocol.o ABSOLUTE
    ..\..\..\components\profiles\ota\ota_service.c 0x00000000   Number         0  ota_service.o ABSOLUTE
    ..\..\..\misc\jump_table.c               0x00000000   Number         0  jump_table.o ABSOLUTE
    ..\\..\\..\\components\\driver\\clock\\clock.c 0x00000000   Number         0  clock.o ABSOLUTE
    ..\\..\\..\\components\\driver\\common\\common.c 0x00000000   Number         0  common.o ABSOLUTE
    ..\\..\\..\\components\\driver\\flash\\flash.c 0x00000000   Number         0  flash.o ABSOLUTE
    ..\\..\\..\\components\\driver\\gpio\\gpio.c 0x00000000   Number         0  gpio.o ABSOLUTE
    ..\\..\\..\\components\\driver\\log\\my_printf.c 0x00000000   Number         0  my_printf.o ABSOLUTE
    ..\\..\\..\\components\\driver\\pwrmgr\\pwrmgr.c 0x00000000   Number         0  pwrmgr.o ABSOLUTE
    ..\\..\\..\\components\\driver\\uart\\uart.c 0x00000000   Number         0  uart.o ABSOLUTE
    ..\\..\\..\\components\\profiles\\Roles\\peripheral.c 0x00000000   Number         0  peripheral.o ABSOLUTE
    ..\\..\\..\\components\\profiles\\hrs\\heartrateservice.c 0x00000000   Number         0  heartrateservice.o ABSOLUTE
    ..\\..\\..\\components\\profiles\\ota\\ota_flash.c 0x00000000   Number         0  ota_flash.o ABSOLUTE
    ..\\..\\..\\components\\profiles\\ota\\ota_protocol.c 0x00000000   Number         0  ota_protocol.o ABSOLUTE
    ..\\..\\..\\components\\profiles\\ota\\ota_service.c 0x00000000   Number         0  ota_service.o ABSOLUTE
    ..\\..\\..\\misc\\jump_table.c           0x00000000   Number         0  jump_table.o ABSOLUTE
    RTE\Device\ARMCM0\startup_ARMCM0.s       0x00000000   Number         0  startup_armcm0.o ABSOLUTE
    RTE\Device\ARMCM0\system_ARMCM0.c        0x00000000   Number         0  system_armcm0.o ABSOLUTE
    RTE\\Device\\ARMCM0\\system_ARMCM0.c     0x00000000   Number         0  system_armcm0.o ABSOLUTE
    Source\OSAL_ota.c                        0x00000000   Number         0  osal_ota.o ABSOLUTE
    Source\\OSAL_ota.c                       0x00000000   Number         0  osal_ota.o ABSOLUTE
    Source\\main.c                           0x00000000   Number         0  main.o ABSOLUTE
    Source\\ota.c                            0x00000000   Number         0  ota.o ABSOLUTE
    Source\\ota_Main.c                       0x00000000   Number         0  ota_main.o ABSOLUTE
    Source\main.c                            0x00000000   Number         0  main.o ABSOLUTE
    Source\ota.c                             0x00000000   Number         0  ota.o ABSOLUTE
    Source\ota_Main.c                        0x00000000   Number         0  ota_main.o ABSOLUTE
    dc.s                                     0x00000000   Number         0  dc.o ABSOLUTE
    handlers.s                               0x00000000   Number         0  handlers.o ABSOLUTE
    init.s                                   0x00000000   Number         0  init.o ABSOLUTE
    source\\aes.c                            0x00000000   Number         0  aes.o ABSOLUTE
    source\\flash_ext.c                      0x00000000   Number         0  flash_ext.o ABSOLUTE
    source\\patch.c                          0x00000000   Number         0  patch.o ABSOLUTE
    source\\rf_phy_driver.c                  0x00000000   Number         0  rf_phy_driver.o ABSOLUTE
    source\aes.c                             0x00000000   Number         0  aes.o ABSOLUTE
    source\flash_ext.c                       0x00000000   Number         0  flash_ext.o ABSOLUTE
    source\patch.c                           0x00000000   Number         0  patch.o ABSOLUTE
    source\rf_phy_driver.c                   0x00000000   Number         0  rf_phy_driver.o ABSOLUTE
    jump_table_mem_area                      0x1fff0800   Section     1024  jump_table.o(jump_table_mem_area)
    global_config_area                       0x1fff0c00   Section     1024  jump_table.o(global_config_area)
    ota_partition_buffer_area                0x1fff4000   Section    81920  ota_protocol.o(ota_partition_buffer_area)
    RESET                                    0x20008000   Section      192  startup_armcm0.o(RESET)
    .ARM.Collect$$$$00000000                 0x200080c0   Section        0  entry.o(.ARM.Collect$$$$00000000)
    .ARM.Collect$$$$00000001                 0x200080c0   Section        4  entry2.o(.ARM.Collect$$$$00000001)
    .ARM.Collect$$$$00000004                 0x200080c4   Section        4  entry5.o(.ARM.Collect$$$$00000004)
    .ARM.Collect$$$$00000008                 0x200080c8   Section        0  entry7b.o(.ARM.Collect$$$$00000008)
    .ARM.Collect$$$$0000000A                 0x200080c8   Section        0  entry8b.o(.ARM.Collect$$$$0000000A)
    .ARM.Collect$$$$0000000B                 0x200080c8   Section        8  entry9a.o(.ARM.Collect$$$$0000000B)
    .ARM.Collect$$$$0000000D                 0x200080d0   Section        0  entry10a.o(.ARM.Collect$$$$0000000D)
    .ARM.Collect$$$$0000000F                 0x200080d0   Section        0  entry11a.o(.ARM.Collect$$$$0000000F)
    .ARM.Collect$$$$00002712                 0x200080d0   Section        4  entry2.o(.ARM.Collect$$$$00002712)
    __lit__00000000                          0x200080d0   Data           4  entry2.o(.ARM.Collect$$$$00002712)
    .text                                    0x200080d4   Section       28  startup_armcm0.o(.text)
    .text                                    0x200080f0   Section        0  memcpya.o(.text)
    .text                                    0x20008114   Section        0  memseta.o(.text)
    .text                                    0x20008138   Section        0  uread4.o(.text)
    .text                                    0x2000814c   Section       36  init.o(.text)
    .text                                    0x20008170   Section        0  __dczerorl2.o(.text)
    i.DevInfo_AddService                     0x20008a2c   Section        0  devinfoservice.o(i.DevInfo_AddService)
    i.DevInfo_SetParameter                   0x20008a44   Section        0  devinfoservice.o(i.DevInfo_SetParameter)
    i.GAPBondMgr_LinkEst                     0x20008a64   Section        0  ota.o(i.GAPBondMgr_LinkEst)
    i.GAPRole_GetParameter                   0x20008a68   Section        0  peripheral.o(i.GAPRole_GetParameter)
    i.GAPRole_Init                           0x20008b50   Section        0  peripheral.o(i.GAPRole_Init)
    i.GAPRole_ProcessEvent                   0x20008b94   Section        0  peripheral.o(i.GAPRole_ProcessEvent)
    i.GAPRole_SendUpdateParam                0x20008c88   Section        0  peripheral.o(i.GAPRole_SendUpdateParam)
    i.GAPRole_SetParameter                   0x20008ce0   Section        0  peripheral.o(i.GAPRole_SetParameter)
    i.GAPRole_StartDevice                    0x20008ef4   Section        0  peripheral.o(i.GAPRole_StartDevice)
    i.GAPRole_TerminateConnection            0x20008f2c   Section        0  peripheral.o(i.GAPRole_TerminateConnection)
    i.GAP_DeviceInit                         0x20008f4c   Section        0  gap.o(i.GAP_DeviceInit)
    i.GATTServApp_AddService                 0x20008f84   Section        0  gattservapp.o(i.GATTServApp_AddService)
    i.GATTServApp_Init                       0x20008fa4   Section        0  gattservapp.o(i.GATTServApp_Init)
    i.GATTServApp_InitCharCfg                0x20008ff0   Section        0  gattservapp.o(i.GATTServApp_InitCharCfg)
    i.GATTServApp_ProcessCCCWriteReq         0x20009020   Section        0  gattservapp.o(i.GATTServApp_ProcessCCCWriteReq)
    i.GATTServApp_ProcessEvent               0x20009078   Section        0  gattservapp.o(i.GATTServApp_ProcessEvent)
    i.GATTServApp_ReadAttr                   0x200090b0   Section        0  gattservapp.o(i.GATTServApp_ReadAttr)
    i.GATTServApp_ReadCharCfg                0x200092d4   Section        0  gattservapp.o(i.GATTServApp_ReadCharCfg)
    i.GATTServApp_RegisterService            0x200092e4   Section        0  gattservapp.o(i.GATTServApp_RegisterService)
    i.GATTServApp_SendCCCUpdatedEvent        0x20009340   Section        0  gattservapp.o(i.GATTServApp_SendCCCUpdatedEvent)
    i.GATTServApp_WriteAttr                  0x20009378   Section        0  gattservapp.o(i.GATTServApp_WriteAttr)
    i.GATTServApp_WriteCharCfg               0x200093b8   Section        0  gattservapp.o(i.GATTServApp_WriteCharCfg)
    i.GGS_AddService                         0x200093e4   Section        0  gapgattserver.o(i.GGS_AddService)
    i.GGS_SetParameter                       0x20009404   Section        0  gapgattserver.o(i.GGS_SetParameter)
    i.HeartRate_HandleConnStatusCB           0x2000948c   Section        0  heartrateservice.o(i.HeartRate_HandleConnStatusCB)
    i.LL_ENC_Decrypt0                        0x200094bc   Section        0  patch.o(i.LL_ENC_Decrypt0)
    i.LL_ENC_Encrypt0                        0x2000960c   Section        0  patch.o(i.LL_ENC_Encrypt0)
    i.LL_IRQHandler1                         0x20009754   Section        0  patch.o(i.LL_IRQHandler1)
    i.LL_SetAdvParam1                        0x20009d44   Section        0  patch.o(i.LL_SetAdvParam1)
    i.LL_set_default_conn_params1            0x20009f98   Section        0  patch.o(i.LL_set_default_conn_params1)
    i.LL_slave_conn_event1                   0x20009fdc   Section        0  patch.o(i.LL_slave_conn_event1)
    i.ProgramWord                            0x2000a154   Section        0  flash_ext.o(i.ProgramWord)
    i.SystemInit                             0x2000a1fc   Section        0  system_armcm0.o(i.SystemInit)
    i.TIM0_IRQHandler1                       0x2000a20c   Section        0  patch.o(i.TIM0_IRQHandler1)
    __tagsym$$used                           0x2000a20d   Number         0  patch.o(i.TIM0_IRQHandler1)
    i.WaitRTCCount                           0x2000a288   Section        0  common.o(i.WaitRTCCount)
    i.WriteFlash                             0x2000a2b4   Section        0  flash_ext.o(i.WriteFlash)
    i.__NVIC_EnableIRQ                       0x2000a2cc   Section        0  gpio.o(i.__NVIC_EnableIRQ)
    __NVIC_EnableIRQ                         0x2000a2cd   Thumb Code    18  gpio.o(i.__NVIC_EnableIRQ)
    i.__NVIC_SetPriority                     0x2000a2e4   Section        0  main.o(i.__NVIC_SetPriority)
    __NVIC_SetPriority                       0x2000a2e5   Thumb Code    60  main.o(i.__NVIC_SetPriority)
    i.__NVIC_SetPriority                     0x2000a328   Section        0  gpio.o(i.__NVIC_SetPriority)
    __NVIC_SetPriority                       0x2000a329   Thumb Code    60  gpio.o(i.__NVIC_SetPriority)
    i.__NVIC_SystemReset                     0x2000a36c   Section        0  ota_flash.o(i.__NVIC_SystemReset)
    __NVIC_SystemReset                       0x2000a36d   Thumb Code    18  ota_flash.o(i.__NVIC_SystemReset)
    i.__scatterload_copy                     0x2000a388   Section       14  handlers.o(i.__scatterload_copy)
    i.__scatterload_null                     0x2000a396   Section        2  handlers.o(i.__scatterload_null)
    i.__scatterload_zeroinit                 0x2000a398   Section       14  handlers.o(i.__scatterload_zeroinit)
    i.arry_sort                              0x2000a3a6   Section        0  patch.o(i.arry_sort)
    i.boot_init1                             0x2000a3dc   Section        0  patch.o(i.boot_init1)
    i.check_chip_id                          0x2000a428   Section        0  flash_ext.o(i.check_chip_id)
    i.check_chip_mAddr                       0x2000a448   Section        0  flash_ext.o(i.check_chip_mAddr)
    i.check_internal_bus_busy                0x2000a468   Section        0  flash_ext.o(i.check_internal_bus_busy)
    i.chip_id_one_bit_hot_convter            0x2000a490   Section        0  flash_ext.o(i.chip_id_one_bit_hot_convter)
    chip_id_one_bit_hot_convter              0x2000a491   Thumb Code   108  flash_ext.o(i.chip_id_one_bit_hot_convter)
    i.clk_gate_enable                        0x2000a4fc   Section        0  clock.o(i.clk_gate_enable)
    i.clk_pclk                               0x2000a510   Section        0  clock.o(i.clk_pclk)
    i.clk_reset                              0x2000a51c   Section        0  clock.o(i.clk_reset)
    i.clock_time_rtc                         0x2000a534   Section        0  patch.o(i.clock_time_rtc)
    i.config_RTC1                            0x2000a54c   Section        0  patch.o(i.config_RTC1)
    i.devInfo_ReadAttrCB                     0x2000a5ac   Section        0  devinfoservice.o(i.devInfo_ReadAttrCB)
    devInfo_ReadAttrCB                       0x2000a5ad   Thumb Code   290  devinfoservice.o(i.devInfo_ReadAttrCB)
    i.disable_spif_flash_write               0x2000a6e0   Section        0  flash_ext.o(i.disable_spif_flash_write)
    i.enable_spif_flash_write                0x2000a700   Section        0  flash_ext.o(i.enable_spif_flash_write)
    i.enterSleepProcess1                     0x2000a720   Section        0  patch.o(i.enterSleepProcess1)
    i.finidv                                 0x2000a83c   Section        0  patch.o(i.finidv)
    i.flash_block64_erase                    0x2000a8d0   Section        0  flash_ext.o(i.flash_block64_erase)
    i.flash_sector_erase                     0x2000a920   Section        0  flash_ext.o(i.flash_sector_erase)
    i.gapRole_ProcessGAPMsg                  0x2000a970   Section        0  peripheral.o(i.gapRole_ProcessGAPMsg)
    gapRole_ProcessGAPMsg                    0x2000a971   Thumb Code   490  peripheral.o(i.gapRole_ProcessGAPMsg)
    i.gapRole_ProcessOSALMsg                 0x2000ab64   Section        0  peripheral.o(i.gapRole_ProcessOSALMsg)
    gapRole_ProcessOSALMsg                   0x2000ab65   Thumb Code   120  peripheral.o(i.gapRole_ProcessOSALMsg)
    i.gapRole_startConnUpdate                0x2000abe4   Section        0  peripheral.o(i.gapRole_startConnUpdate)
    gapRole_startConnUpdate                  0x2000abe5   Thumb Code    86  peripheral.o(i.gapRole_startConnUpdate)
    i.gattServApp_FindAuthorizeAttrCB        0x2000ac40   Section        0  gattservapp.o(i.gattServApp_FindAuthorizeAttrCB)
    gattServApp_FindAuthorizeAttrCB          0x2000ac41   Thumb Code    14  gattservapp.o(i.gattServApp_FindAuthorizeAttrCB)
    i.gattServApp_FindCharCfgItem            0x2000ac4e   Section        0  gattservapp.o(i.gattServApp_FindCharCfgItem)
    gattServApp_FindCharCfgItem              0x2000ac4f   Thumb Code    28  gattservapp.o(i.gattServApp_FindCharCfgItem)
    i.gattServApp_FindPrepareWriteQ          0x2000ac6c   Section        0  gattservapp.o(i.gattServApp_FindPrepareWriteQ)
    gattServApp_FindPrepareWriteQ            0x2000ac6d   Thumb Code    30  gattservapp.o(i.gattServApp_FindPrepareWriteQ)
    i.gattServApp_FindServiceCBs             0x2000ac90   Section        0  gattservapp.o(i.gattServApp_FindServiceCBs)
    gattServApp_FindServiceCBs               0x2000ac91   Thumb Code    26  gattservapp.o(i.gattServApp_FindServiceCBs)
    i.gattServApp_HandleConnStatusCB         0x2000acb0   Section        0  gattservapp.o(i.gattServApp_HandleConnStatusCB)
    gattServApp_HandleConnStatusCB           0x2000acb1   Thumb Code    88  gattservapp.o(i.gattServApp_HandleConnStatusCB)
    i.gattServApp_ProcessExecuteWriteReq     0x2000ad0c   Section        0  gattservapp.o(i.gattServApp_ProcessExecuteWriteReq)
    gattServApp_ProcessExecuteWriteReq       0x2000ad0d   Thumb Code   132  gattservapp.o(i.gattServApp_ProcessExecuteWriteReq)
    i.gattServApp_ProcessFindByTypeValueReq  0x2000ad94   Section        0  gattservapp.o(i.gattServApp_ProcessFindByTypeValueReq)
    gattServApp_ProcessFindByTypeValueReq    0x2000ad95   Thumb Code   212  gattservapp.o(i.gattServApp_ProcessFindByTypeValueReq)
    i.gattServApp_ProcessMsg                 0x2000ae70   Section        0  gattservapp.o(i.gattServApp_ProcessMsg)
    gattServApp_ProcessMsg                   0x2000ae71   Thumb Code   300  gattservapp.o(i.gattServApp_ProcessMsg)
    i.gattServApp_ProcessPrepareWriteReq     0x2000afa0   Section        0  gattservapp.o(i.gattServApp_ProcessPrepareWriteReq)
    gattServApp_ProcessPrepareWriteReq       0x2000afa1   Thumb Code   150  gattservapp.o(i.gattServApp_ProcessPrepareWriteReq)
    i.gattServApp_ProcessReadByGrpTypeReq    0x2000b040   Section        0  gattservapp.o(i.gattServApp_ProcessReadByGrpTypeReq)
    gattServApp_ProcessReadByGrpTypeReq      0x2000b041   Thumb Code   310  gattservapp.o(i.gattServApp_ProcessReadByGrpTypeReq)
    i.gattServApp_ProcessReadByTypeReq       0x2000b180   Section        0  gattservapp.o(i.gattServApp_ProcessReadByTypeReq)
    gattServApp_ProcessReadByTypeReq         0x2000b181   Thumb Code   242  gattservapp.o(i.gattServApp_ProcessReadByTypeReq)
    i.gattServApp_ProcessReadMultiReq        0x2000b280   Section        0  gattservapp.o(i.gattServApp_ProcessReadMultiReq)
    gattServApp_ProcessReadMultiReq          0x2000b281   Thumb Code   160  gattservapp.o(i.gattServApp_ProcessReadMultiReq)
    i.gattServApp_ProcessWriteReq            0x2000b328   Section        0  gattservapp.o(i.gattServApp_ProcessWriteReq)
    gattServApp_ProcessWriteReq              0x2000b329   Thumb Code   112  gattservapp.o(i.gattServApp_ProcessWriteReq)
    i.gattServApp_SetNumPrepareWrites        0x2000b398   Section        0  gattservapp.o(i.gattServApp_SetNumPrepareWrites)
    gattServApp_SetNumPrepareWrites          0x2000b399   Thumb Code   112  gattservapp.o(i.gattServApp_SetNumPrepareWrites)
    i.gattServApp_WriteAttrCB                0x2000b410   Section        0  gattservapp.o(i.gattServApp_WriteAttrCB)
    gattServApp_WriteAttrCB                  0x2000b411   Thumb Code    44  gattservapp.o(i.gattServApp_WriteAttrCB)
    i.getPN23RandNumber                      0x2000b440   Section        0  patch.o(i.getPN23RandNumber)
    i.ggs_ReadAttrCB                         0x2000b468   Section        0  gapgattserver.o(i.ggs_ReadAttrCB)
    ggs_ReadAttrCB                           0x2000b469   Thumb Code   194  gapgattserver.o(i.ggs_ReadAttrCB)
    i.ggs_SetAttrWPermit                     0x2000b52a   Section        0  gapgattserver.o(i.ggs_SetAttrWPermit)
    ggs_SetAttrWPermit                       0x2000b52b   Thumb Code    88  gapgattserver.o(i.ggs_SetAttrWPermit)
    i.ggs_WriteAttrCB                        0x2000b584   Section        0  gapgattserver.o(i.ggs_WriteAttrCB)
    ggs_WriteAttrCB                          0x2000b585   Thumb Code   222  gapgattserver.o(i.ggs_WriteAttrCB)
    i.gpio_interrupt_enable                  0x2000b668   Section        0  gpio.o(i.gpio_interrupt_enable)
    gpio_interrupt_enable                    0x2000b669   Thumb Code    58  gpio.o(i.gpio_interrupt_enable)
    i.gpio_pin0to3_pin31to34_control         0x2000b6a8   Section        0  gpio.o(i.gpio_pin0to3_pin31to34_control)
    i.gpio_sleep_handler                     0x2000b6d0   Section        0  gpio.o(i.gpio_sleep_handler)
    gpio_sleep_handler                       0x2000b6d1   Thumb Code    64  gpio.o(i.gpio_sleep_handler)
    i.gpio_wakeup_handler                    0x2000b714   Section        0  gpio.o(i.gpio_wakeup_handler)
    gpio_wakeup_handler                      0x2000b715   Thumb Code    86  gpio.o(i.gpio_wakeup_handler)
    i.gpioin_event                           0x2000b770   Section        0  gpio.o(i.gpioin_event)
    gpioin_event                             0x2000b771   Thumb Code   104  gpio.o(i.gpioin_event)
    i.gpioin_event_pin                       0x2000b7dc   Section        0  gpio.o(i.gpioin_event_pin)
    gpioin_event_pin                         0x2000b7dd   Thumb Code    32  gpio.o(i.gpioin_event_pin)
    i.hal_GPIO_IRQHandler                    0x2000b800   Section        0  gpio.o(i.hal_GPIO_IRQHandler)
    __tagsym$$used                           0x2000b801   Number         0  gpio.o(i.hal_GPIO_IRQHandler)
    i.hal_UART0_IRQHandler                   0x2000b818   Section        0  uart.o(i.hal_UART0_IRQHandler)
    __tagsym$$used                           0x2000b819   Number         0  uart.o(i.hal_UART0_IRQHandler)
    i.hal_cpyMem                             0x2000b858   Section        0  common.o(i.hal_cpyMem)
    i.hal_gpio_fmux                          0x2000b868   Section        0  gpio.o(i.hal_gpio_fmux)
    i.hal_gpio_fmux_set                      0x2000b890   Section        0  gpio.o(i.hal_gpio_fmux_set)
    i.hal_gpio_init                          0x2000b8c0   Section        0  gpio.o(i.hal_gpio_init)
    i.hal_gpio_pin_init                      0x2000b91c   Section        0  gpio.o(i.hal_gpio_pin_init)
    i.hal_gpio_pull_set                      0x2000b974   Section        0  gpio.o(i.hal_gpio_pull_set)
    i.hal_gpio_read                          0x2000b9a8   Section        0  gpio.o(i.hal_gpio_read)
    i.hal_gpio_wakeup_set                    0x2000b9e0   Section        0  gpio.o(i.hal_gpio_wakeup_set)
    i.hal_gpioin_enable                      0x2000ba30   Section        0  gpio.o(i.hal_gpioin_enable)
    i.hal_init                               0x2000ba9c   Section        0  main.o(i.hal_init)
    i.hal_pwrmgr_RAM_retention_clr           0x2000bad8   Section        0  pwrmgr.o(i.hal_pwrmgr_RAM_retention_clr)
    i.hal_pwrmgr_RAM_retention_set           0x2000baf0   Section        0  pwrmgr.o(i.hal_pwrmgr_RAM_retention_set)
    i.hal_pwrmgr_init                        0x2000bb0c   Section        0  pwrmgr.o(i.hal_pwrmgr_init)
    i.hal_pwrmgr_lock                        0x2000bb40   Section        0  pwrmgr.o(i.hal_pwrmgr_lock)
    i.hal_pwrmgr_register                    0x2000bb94   Section        0  pwrmgr.o(i.hal_pwrmgr_register)
    i.hal_pwrmgr_sleep_process               0x2000bbd0   Section        0  pwrmgr.o(i.hal_pwrmgr_sleep_process)
    __tagsym$$used                           0x2000bbd1   Number         0  pwrmgr.o(i.hal_pwrmgr_sleep_process)
    i.hal_pwrmgr_unlock                      0x2000bc04   Section        0  pwrmgr.o(i.hal_pwrmgr_unlock)
    i.hal_pwrmgr_wakeup_process              0x2000bc64   Section        0  pwrmgr.o(i.hal_pwrmgr_wakeup_process)
    __tagsym$$used                           0x2000bc65   Number         0  pwrmgr.o(i.hal_pwrmgr_wakeup_process)
    i.hal_rfphy_init                         0x2000bc94   Section        0  main.o(i.hal_rfphy_init)
    hal_rfphy_init                           0x2000bc95   Thumb Code    92  main.o(i.hal_rfphy_init)
    i.hal_rom_code_ini                       0x2000bd0c   Section        0  patch.o(i.hal_rom_code_ini)
    i.hal_rtc_clock_config                   0x2000bd70   Section        0  clock.o(i.hal_rtc_clock_config)
    i.hal_system_init                        0x2000bdfc   Section        0  common.o(i.hal_system_init)
    i.hal_uart_init                          0x2000becc   Section        0  uart.o(i.hal_uart_init)
    i.hal_uart_send_buff                     0x2000bf20   Section        0  uart.o(i.hal_uart_send_buff)
    i.handleConnStatusCB                     0x2000bf3c   Section        0  ota_service.o(i.handleConnStatusCB)
    handleConnStatusCB                       0x2000bf3d   Thumb Code    40  ota_service.o(i.handleConnStatusCB)
    i.handle_error                           0x2000bf6c   Section        0  ota_protocol.o(i.handle_error)
    handle_error                             0x2000bf6d   Thumb Code    44  ota_protocol.o(i.handle_error)
    i.handle_error_state                     0x2000bfa4   Section        0  ota_protocol.o(i.handle_error_state)
    handle_error_state                       0x2000bfa5   Thumb Code    46  ota_protocol.o(i.handle_error_state)
    i.hard_fault                             0x2000bfe0   Section        0  jump_table.o(i.hard_fault)
    hard_fault                               0x2000bfe1   Thumb Code    30  jump_table.o(i.hard_fault)
    i.init_config                            0x2000c020   Section        0  patch.o(i.init_config)
    i.irq_rx_handler                         0x2000c1fc   Section        0  uart.o(i.irq_rx_handler)
    irq_rx_handler                           0x2000c1fd   Thumb Code    68  uart.o(i.irq_rx_handler)
    i.irq_tx_empty_handler                   0x2000c248   Section        0  uart.o(i.irq_tx_empty_handler)
    irq_tx_empty_handler                     0x2000c249   Thumb Code   114  uart.o(i.irq_tx_empty_handler)
    i.llAdjSlaveLatencyValue                 0x2000c2c8   Section        0  patch.o(i.llAdjSlaveLatencyValue)
    i.llProcessRxData1                       0x2000c2e8   Section        0  patch.o(i.llProcessRxData1)
    i.llProcessSlaveControlPacket1           0x2000c454   Section        0  patch.o(i.llProcessSlaveControlPacket1)
    i.llProcessSlaveControlProcedures0       0x2000c67c   Section        0  patch.o(i.llProcessSlaveControlProcedures0)
    i.llSetupAdv1                            0x2000c900   Section        0  patch.o(i.llSetupAdv1)
    i.llSetupDirectedAdvEvt1                 0x2000c96c   Section        0  patch.o(i.llSetupDirectedAdvEvt1)
    i.llSetupEncRsp0                         0x2000cb00   Section        0  patch.o(i.llSetupEncRsp0)
    i.llSetupFeatureSetRsp1                  0x2000cb88   Section        0  patch.o(i.llSetupFeatureSetRsp1)
    i.llSetupNextSlaveEvent1                 0x2000cbf4   Section        0  patch.o(i.llSetupNextSlaveEvent1)
    i.llSetupRejectInd1                      0x2000cd3c   Section        0  patch.o(i.llSetupRejectInd1)
    i.llSetupTermInd1                        0x2000cd74   Section        0  patch.o(i.llSetupTermInd1)
    i.llSetupUndirectedAdvEvt1               0x2000cde4   Section        0  patch.o(i.llSetupUndirectedAdvEvt1)
    i.llSetupUnknownRsp1                     0x2000cedc   Section        0  patch.o(i.llSetupUnknownRsp1)
    i.llSlaveEvt_TaskEndOk1                  0x2000cf38   Section        0  patch.o(i.llSlaveEvt_TaskEndOk1)
    i.ll_adptive_adj_next_time               0x2000d0f0   Section        0  patch.o(i.ll_adptive_adj_next_time)
    i.ll_adptive_smart_window                0x2000d154   Section        0  patch.o(i.ll_adptive_smart_window)
    i.ll_hw_go1                              0x2000d1ec   Section        0  patch.o(i.ll_hw_go1)
    i.main                                   0x2000d27c   Section        0  main.o(i.main)
    i.move_to_slave_function1                0x2000d2a4   Section        0  patch.o(i.move_to_slave_function1)
    i.osalInitTasks                          0x2000d4d0   Section        0  osal_ota.o(i.osalInitTasks)
    i.osal_pwrmgr_powerconserve1             0x2000d534   Section        0  patch.o(i.osal_pwrmgr_powerconserve1)
    i.otaApp_Init                            0x2000d680   Section        0  ota.o(i.otaApp_Init)
    i.otaApp_ProcessEvent                    0x2000d788   Section        0  ota.o(i.otaApp_ProcessEvent)
    i.otaProtocol_BootMode                   0x2000d7f0   Section        0  ota_protocol.o(i.otaProtocol_BootMode)
    i.otaProtocol_TimerEvt                   0x2000d828   Section        0  ota_protocol.o(i.otaProtocol_TimerEvt)
    i.otaProtocol_init                       0x2000d840   Section        0  ota_protocol.o(i.otaProtocol_init)
    i.ota_AddService                         0x2000d878   Section        0  ota_service.o(i.ota_AddService)
    i.ota_GapStateCB                         0x2000d8d8   Section        0  ota.o(i.ota_GapStateCB)
    ota_GapStateCB                           0x2000d8d9   Thumb Code   162  ota.o(i.ota_GapStateCB)
    i.ota_Notify                             0x2000d998   Section        0  ota_service.o(i.ota_Notify)
    i.ota_ReadAttrCB                         0x2000d9f0   Section        0  ota_service.o(i.ota_ReadAttrCB)
    ota_ReadAttrCB                           0x2000d9f1   Thumb Code    26  ota_service.o(i.ota_ReadAttrCB)
    i.ota_WriteAttrCB                        0x2000da18   Section        0  ota_service.o(i.ota_WriteAttrCB)
    ota_WriteAttrCB                          0x2000da19   Thumb Code   204  ota_service.o(i.ota_WriteAttrCB)
    i.ota_flash_erase                        0x2000db04   Section        0  ota_flash.o(i.ota_flash_erase)
    i.ota_flash_erase_resource               0x2000db50   Section        0  ota_flash.o(i.ota_flash_erase_resource)
    i.ota_flash_load_fct                     0x2000dbcc   Section        0  ota_flash.o(i.ota_flash_load_fct)
    i.ota_flash_read_bootsector              0x2000dbd0   Section        0  ota_flash.o(i.ota_flash_read_bootsector)
    i.ota_flash_write_boot_sector            0x2000dc2c   Section        0  ota_flash.o(i.ota_flash_write_boot_sector)
    i.ota_flash_write_partition              0x2000dc98   Section        0  ota_flash.o(i.ota_flash_write_partition)
    i.ota_main                               0x2000dd02   Section        0  ota_main.o(i.ota_main)
    i.partition_program                      0x2000dd18   Section        0  ota_protocol.o(i.partition_program)
    partition_program                        0x2000dd19   Thumb Code    94  ota_protocol.o(i.partition_program)
    i.phy_printf                             0x2000dd80   Section        0  my_printf.o(i.phy_printf)
    i.phy_printf_init                        0x2000ddbc   Section        0  my_printf.o(i.phy_printf_init)
    i.print                                  0x2000ddcc   Section        0  my_printf.o(i.print)
    print                                    0x2000ddcd   Thumb Code   250  my_printf.o(i.print)
    i.printchar                              0x2000ded0   Section        0  my_printf.o(i.printchar)
    printchar                                0x2000ded1   Thumb Code    36  my_printf.o(i.printchar)
    i.printi                                 0x2000defc   Section        0  my_printf.o(i.printi)
    printi                                   0x2000defd   Thumb Code   146  my_printf.o(i.printi)
    i.prints                                 0x2000df8e   Section        0  my_printf.o(i.prints)
    prints                                   0x2000df8f   Thumb Code   112  my_printf.o(i.prints)
    i.process_ctrl_cmd                       0x2000e000   Section        0  ota_protocol.o(i.process_ctrl_cmd)
    i.process_ota_data                       0x2000e1e0   Section        0  ota_protocol.o(i.process_ota_data)
    i.process_ota_partition_data             0x2000e238   Section        0  ota_protocol.o(i.process_ota_partition_data)
    process_ota_partition_data               0x2000e239   Thumb Code   166  ota_protocol.o(i.process_ota_partition_data)
    i.process_service_evt                    0x2000e300   Section        0  ota_protocol.o(i.process_service_evt)
    i.rc32k_calibration                      0x2000e36c   Section        0  patch.o(i.rc32k_calibration)
    i.rc32k_calibration_check                0x2000e3cc   Section        0  patch.o(i.rc32k_calibration_check)
    i.rc32k_tracking_check                   0x2000e40c   Section        0  patch.o(i.rc32k_tracking_check)
    i.read_chip_id                           0x2000e47c   Section        0  flash_ext.o(i.read_chip_id)
    i.read_chip_mAddr                        0x2000e4b8   Section        0  flash_ext.o(i.read_chip_mAddr)
    i.response                               0x2000e4f8   Section        0  ota_protocol.o(i.response)
    response                                 0x2000e4f9   Thumb Code    36  ota_protocol.o(i.response)
    i.response_err                           0x2000e51c   Section        0  ota_protocol.o(i.response_err)
    response_err                             0x2000e51d   Thumb Code    36  ota_protocol.o(i.response_err)
    i.rf_calibrate1                          0x2000e540   Section        0  patch.o(i.rf_calibrate1)
    i.rf_phy_ana_cfg                         0x2000e568   Section        0  rf_phy_driver.o(i.rf_phy_ana_cfg)
    i.rf_phy_bb_cfg                          0x2000e644   Section        0  rf_phy_driver.o(i.rf_phy_bb_cfg)
    i.rf_phy_get_pktFoot                     0x2000e754   Section        0  rf_phy_driver.o(i.rf_phy_get_pktFoot)
    i.rf_phy_ini                             0x2000e784   Section        0  rf_phy_driver.o(i.rf_phy_ini)
    i.rf_phy_set_txPower                     0x2000e7a0   Section        0  rf_phy_driver.o(i.rf_phy_set_txPower)
    i.rf_rxDcoc_cfg                          0x2000e7d4   Section        0  rf_phy_driver.o(i.rf_rxDcoc_cfg)
    i.rf_tpCal_gen_cap_arrary                0x2000e8dc   Section        0  rf_phy_driver.o(i.rf_tpCal_gen_cap_arrary)
    i.rf_tp_cal                              0x2000e978   Section        0  rf_phy_driver.o(i.rf_tp_cal)
    i.run_fct                                0x2000ea0c   Section        0  ota_protocol.o(i.run_fct)
    i.sector_crypto                          0x2000ea24   Section        0  ota_protocol.o(i.sector_crypto)
    sector_crypto                            0x2000ea25   Thumb Code    72  ota_protocol.o(i.sector_crypto)
    i.start_timer                            0x2000ea74   Section        0  ota_protocol.o(i.start_timer)
    start_timer                              0x2000ea75   Thumb Code    16  ota_protocol.o(i.start_timer)
    i.subWriteReg                            0x2000ea88   Section        0  common.o(i.subWriteReg)
    i.txmit_buf_polling                      0x2000eaac   Section        0  uart.o(i.txmit_buf_polling)
    txmit_buf_polling                        0x2000eaad   Thumb Code    96  uart.o(i.txmit_buf_polling)
    i.txmit_buf_use_tx_buf                   0x2000eb14   Section        0  uart.o(i.txmit_buf_use_tx_buf)
    txmit_buf_use_tx_buf                     0x2000eb15   Thumb Code   118  uart.o(i.txmit_buf_use_tx_buf)
    i.uart_hw_config                         0x2000eb94   Section        0  uart.o(i.uart_hw_config)
    uart_hw_config                           0x2000eb95   Thumb Code   134  uart.o(i.uart_hw_config)
    i.validate_partition_parameter           0x2000ec2c   Section        0  ota_protocol.o(i.validate_partition_parameter)
    i.verify_mic                             0x2000ec80   Section        0  patch.o(i.verify_mic)
    i.wakeupProcess1                         0x2000ecac   Section        0  patch.o(i.wakeupProcess1)
    i.wakeup_init1                           0x2000ee54   Section        0  patch.o(i.wakeup_init1)
    i.write_app_boot_sector                  0x2000ef2c   Section        0  ota_protocol.o(i.write_app_boot_sector)
    write_app_boot_sector                    0x2000ef2d   Thumb Code    96  ota_protocol.o(i.write_app_boot_sector)
    .constdata                               0x2000ef94   Section        2  devinfoservice.o(.constdata)
    .constdata                               0x2000ef96   Section        2  devinfoservice.o(.constdata)
    .constdata                               0x2000ef98   Section        2  devinfoservice.o(.constdata)
    .constdata                               0x2000ef9a   Section        2  devinfoservice.o(.constdata)
    .constdata                               0x2000ef9c   Section        2  devinfoservice.o(.constdata)
    .constdata                               0x2000ef9e   Section        2  devinfoservice.o(.constdata)
    .constdata                               0x2000efa0   Section        2  devinfoservice.o(.constdata)
    .constdata                               0x2000efa2   Section        2  devinfoservice.o(.constdata)
    .constdata                               0x2000efa4   Section        2  devinfoservice.o(.constdata)
    .constdata                               0x2000efa6   Section        2  devinfoservice.o(.constdata)
    .constdata                               0x2000efa8   Section        8  devinfoservice.o(.constdata)
    devInfoService                           0x2000efa8   Data           8  devinfoservice.o(.constdata)
    .constdata                               0x2000efb0   Section      128  devinfoservice.o(.constdata)
    devInfoModelNumber                       0x2000efb0   Data          13  devinfoservice.o(.constdata)
    devInfoSerialNumber                      0x2000efbd   Data          14  devinfoservice.o(.constdata)
    devInfoFirmwareRev                       0x2000efcb   Data          18  devinfoservice.o(.constdata)
    devInfoHardwareRev                       0x2000efdd   Data          18  devinfoservice.o(.constdata)
    devInfoSoftwareRev                       0x2000efef   Data          18  devinfoservice.o(.constdata)
    devInfoMfrName                           0x2000f001   Data          18  devinfoservice.o(.constdata)
    devInfo11073Cert                         0x2000f013   Data          14  devinfoservice.o(.constdata)
    .constdata                               0x2000f030   Section        8  gattservapp.o(.constdata)
    gattService                              0x2000f030   Data           8  gattservapp.o(.constdata)
    .constdata                               0x2000f038   Section       12  gattservapp.o(.constdata)
    .constdata                               0x2000f044   Section        8  gapgattserver.o(.constdata)
    gapService                               0x2000f044   Data           8  gapgattserver.o(.constdata)
    .constdata                               0x2000f04c   Section       12  gapgattserver.o(.constdata)
    .constdata                               0x2000f058   Section        2  heartrateservice.o(.constdata)
    .constdata                               0x2000f05a   Section        2  heartrateservice.o(.constdata)
    .constdata                               0x2000f05c   Section        2  heartrateservice.o(.constdata)
    .constdata                               0x2000f05e   Section        2  heartrateservice.o(.constdata)
    .constdata                               0x2000f060   Section        8  heartrateservice.o(.constdata)
    heartRateService                         0x2000f060   Data           8  heartrateservice.o(.constdata)
    .constdata                               0x2000f068   Section       16  ota_service.o(.constdata)
    .constdata                               0x2000f078   Section       16  ota_service.o(.constdata)
    .constdata                               0x2000f088   Section       16  ota_service.o(.constdata)
    .constdata                               0x2000f098   Section       16  ota_service.o(.constdata)
    .constdata                               0x2000f0a8   Section        8  ota_service.o(.constdata)
    ota_Service                              0x2000f0a8   Data           8  ota_service.o(.constdata)
    .constdata                               0x2000f0b0   Section       12  ota_service.o(.constdata)
    .constdata                               0x2000f0bc   Section       36  osal_ota.o(.constdata)
    .constdata                               0x2000f0e0   Section        1  osal_ota.o(.constdata)
    .constdata                               0x2000f0e4   Section       16  my_printf.o(.constdata)
    .constdata                               0x2000f0f4   Section       12  uart.o(.constdata)
    .conststring                             0x2000f100   Section       17  patch.o(.conststring)
    .data                                    0x2000f184   Section        1  devinfoservice.o(.data)
    devInfoSystemIdProps                     0x2000f184   Data           1  devinfoservice.o(.data)
    .data                                    0x2000f188   Section      320  devinfoservice.o(.data)
    devInfoPnpId                             0x2000f188   Data           7  devinfoservice.o(.data)
    devInfoSystemId                          0x2000f18f   Data           8  devinfoservice.o(.data)
    devInfoAttrTbl                           0x2000f198   Data         304  devinfoservice.o(.data)
    .data                                    0x2000f2c8   Section        1  devinfoservice.o(.data)
    devInfoModelNumberProps                  0x2000f2c8   Data           1  devinfoservice.o(.data)
    .data                                    0x2000f2c9   Section        1  devinfoservice.o(.data)
    devInfoSerialNumberProps                 0x2000f2c9   Data           1  devinfoservice.o(.data)
    .data                                    0x2000f2ca   Section        1  devinfoservice.o(.data)
    devInfoFirmwareRevProps                  0x2000f2ca   Data           1  devinfoservice.o(.data)
    .data                                    0x2000f2cb   Section        1  devinfoservice.o(.data)
    devInfoHardwareRevProps                  0x2000f2cb   Data           1  devinfoservice.o(.data)
    .data                                    0x2000f2cc   Section        1  devinfoservice.o(.data)
    devInfoSoftwareRevProps                  0x2000f2cc   Data           1  devinfoservice.o(.data)
    .data                                    0x2000f2cd   Section        1  devinfoservice.o(.data)
    devInfoMfrNameProps                      0x2000f2cd   Data           1  devinfoservice.o(.data)
    .data                                    0x2000f2ce   Section        1  devinfoservice.o(.data)
    devInfo11073CertProps                    0x2000f2ce   Data           1  devinfoservice.o(.data)
    .data                                    0x2000f2cf   Section        1  devinfoservice.o(.data)
    devInfoPnpIdProps                        0x2000f2cf   Data           1  devinfoservice.o(.data)
    .data                                    0x2000f2d0   Section       88  gattservapp.o(.data)
    maxNumPrepareWrites                      0x2000f2d1   Data           1  gattservapp.o(.data)
    attrLen                                  0x2000f2d3   Data           1  gattservapp.o(.data)
    serviceCBsList                           0x2000f2d4   Data           4  gattservapp.o(.data)
    prepareWritesTbl                         0x2000f2d8   Data           8  gattservapp.o(.data)
    indCharCfg                               0x2000f2e0   Data           8  gattservapp.o(.data)
    gattAttrTbl                              0x2000f2e8   Data          64  gattservapp.o(.data)
    .data                                    0x2000f328   Section        1  gattservapp.o(.data)
    serviceChangedCharProps                  0x2000f328   Data           1  gattservapp.o(.data)
    .data                                    0x2000f32c   Section      128  gapgattserver.o(.data)
    appearance                               0x2000f32c   Data           2  gapgattserver.o(.data)
    ggs_AppCBs                               0x2000f330   Data           4  gapgattserver.o(.data)
    periConnParameters                       0x2000f334   Data           8  gapgattserver.o(.data)
    gapAttrTbl                               0x2000f33c   Data         112  gapgattserver.o(.data)
    .data                                    0x2000f3ac   Section        1  gapgattserver.o(.data)
    deviceNameCharProps                      0x2000f3ac   Data           1  gapgattserver.o(.data)
    .data                                    0x2000f3ad   Section        1  gapgattserver.o(.data)
    appearanceCharProps                      0x2000f3ad   Data           1  gapgattserver.o(.data)
    .data                                    0x2000f3ae   Section        1  gapgattserver.o(.data)
    periConnParamCharProps                   0x2000f3ae   Data           1  gapgattserver.o(.data)
    .data                                    0x2000f3b0   Section       97  peripheral.o(.data)
    gapRole_AdvertDataLen                    0x2000f3b1   Data           1  peripheral.o(.data)
    gapRole_ScanRspDataLen                   0x2000f3b2   Data           1  peripheral.o(.data)
    gapRole_ParamUpdateEnable                0x2000f3b3   Data           1  peripheral.o(.data)
    paramUpdateNoSuccessOption               0x2000f3b4   Data           1  peripheral.o(.data)
    gapRole_TaskID                           0x2000f3b5   Data           1  peripheral.o(.data)
    gapRole_state                            0x2000f3b6   Data           1  peripheral.o(.data)
    gapRole_profileRole                      0x2000f3b7   Data           1  peripheral.o(.data)
    gapRole_AdvDirectType                    0x2000f3b9   Data           1  peripheral.o(.data)
    gapRole_AdvChanMap                       0x2000f3ba   Data           1  peripheral.o(.data)
    gapRole_AdvFilterPolicy                  0x2000f3bb   Data           1  peripheral.o(.data)
    gapRole_AdvertOffTime                    0x2000f3bc   Data           2  peripheral.o(.data)
    gapRole_ConnectionHandle                 0x2000f3be   Data           2  peripheral.o(.data)
    gapRole_ConnectionInterval               0x2000f3c0   Data           2  peripheral.o(.data)
    gapRole_ConnectionLatency                0x2000f3c2   Data           2  peripheral.o(.data)
    gapRole_RSSIReadRate                     0x2000f3c4   Data           2  peripheral.o(.data)
    gapRole_MinConnInterval                  0x2000f3c6   Data           2  peripheral.o(.data)
    gapRole_MaxConnInterval                  0x2000f3c8   Data           2  peripheral.o(.data)
    gapRole_SlaveLatency                     0x2000f3ca   Data           2  peripheral.o(.data)
    gapRole_TimeoutMultiplier                0x2000f3cc   Data           2  peripheral.o(.data)
    gapRole_ConnInterval                     0x2000f3ce   Data           2  peripheral.o(.data)
    gapRole_ConnSlaveLatency                 0x2000f3d0   Data           2  peripheral.o(.data)
    gapRole_ConnTimeout                      0x2000f3d2   Data           2  peripheral.o(.data)
    pGapRoles_AppCGs                         0x2000f3d4   Data           4  peripheral.o(.data)
    pGapRoles_ParamUpdateCB                  0x2000f3d8   Data           4  peripheral.o(.data)
    gapRole_signCounter                      0x2000f3dc   Data           4  peripheral.o(.data)
    gapRole_AdvDirectAddr                    0x2000f3e0   Data           6  peripheral.o(.data)
    gapRole_ConnectedDevAddr                 0x2000f3e6   Data           6  peripheral.o(.data)
    gapRole_bdAddr                           0x2000f3ec   Data           6  peripheral.o(.data)
    gapRole_AdvertData                       0x2000f3f2   Data          31  peripheral.o(.data)
    .data                                    0x2000f411   Section        1  heartrateservice.o(.data)
    heartRateMeasProps                       0x2000f411   Data           1  heartrateservice.o(.data)
    .data                                    0x2000f412   Section        1  heartrateservice.o(.data)
    heartRateMeas                            0x2000f412   Data           1  heartrateservice.o(.data)
    .data                                    0x2000f413   Section        1  heartrateservice.o(.data)
    heartRateSensLocProps                    0x2000f413   Data           1  heartrateservice.o(.data)
    .data                                    0x2000f414   Section      144  heartrateservice.o(.data)
    heartRateSensLoc                         0x2000f414   Data           1  heartrateservice.o(.data)
    heartRateCommand                         0x2000f415   Data           1  heartrateservice.o(.data)
    heartRateServiceCB                       0x2000f418   Data           4  heartrateservice.o(.data)
    heartRateMeasClientCharCfg               0x2000f41c   Data           8  heartrateservice.o(.data)
    heartRateAttrTbl                         0x2000f424   Data         128  heartrateservice.o(.data)
    .data                                    0x2000f4a4   Section        1  heartrateservice.o(.data)
    heartRateCommandProps                    0x2000f4a4   Data           1  heartrateservice.o(.data)
    .data                                    0x2000f4a5   Section        1  ota_service.o(.data)
    ota_CommandProps                         0x2000f4a5   Data           1  ota_service.o(.data)
    .data                                    0x2000f4a6   Section        1  ota_service.o(.data)
    ota_CommandValue                         0x2000f4a6   Data           1  ota_service.o(.data)
    .data                                    0x2000f4a7   Section        1  ota_service.o(.data)
    ota_ResponseProps                        0x2000f4a7   Data           1  ota_service.o(.data)
    .data                                    0x2000f4a8   Section        1  ota_service.o(.data)
    ota_ResponseValue                        0x2000f4a8   Data           1  ota_service.o(.data)
    .data                                    0x2000f4a9   Section        1  ota_service.o(.data)
    ota_DataProps                            0x2000f4a9   Data           1  ota_service.o(.data)
    .data                                    0x2000f4aa   Section        1  ota_service.o(.data)
    ota_DataValue                            0x2000f4aa   Data           1  ota_service.o(.data)
    .data                                    0x2000f4ac   Section      140  ota_service.o(.data)
    ota_AppCBs                               0x2000f4ac   Data           4  ota_service.o(.data)
    ota_ResponseCCCD                         0x2000f4b0   Data           8  ota_service.o(.data)
    ota_AttrTbl                              0x2000f4b8   Data         128  ota_service.o(.data)
    .data                                    0x2000f538   Section        1  ota_protocol.o(.data)
    s_ota_resource                           0x2000f538   Data           1  ota_protocol.o(.data)
    .data                                    0x2000f53c   Section        4  osal_ota.o(.data)
    .data                                    0x2000f540   Section       58  ota.o(.data)
    gapProfileState                          0x2000f540   Data           1  ota.o(.data)
    gapConnHandle                            0x2000f542   Data           2  ota.o(.data)
    ota_PeripheralCB                         0x2000f544   Data           8  ota.o(.data)
    advertData                               0x2000f54c   Data          25  ota.o(.data)
    attDeviceName                            0x2000f565   Data          21  ota.o(.data)
    .data                                    0x2000f57a   Section        2  my_printf.o(.data)
    .data                                    0x2000f57c   Section        8  pwrmgr.o(.data)
    mPwrMode                                 0x2000f57c   Data           1  pwrmgr.o(.data)
    sramRet_config                           0x2000f580   Data           4  pwrmgr.o(.data)
    .data                                    0x2000f584   Section        4  system_armcm0.o(.data)
    .data                                    0x2000f588   Section        4  patch.o(.data)
    .data                                    0x2000f58c   Section       88  patch.o(.data)
    rtc_mod_value                            0x2000f5dc   Data           4  patch.o(.data)
    .data                                    0x2000f5e4   Section       56  rf_phy_driver.o(.data)
    .data                                    0x2000f61c   Section       10  flash_ext.o(.data)
    .bss                                     0x2000f628   Section      528  gattservapp.o(.bss)
    prepareQueue                             0x2000f628   Data         480  gattservapp.o(.bss)
    attrValue                                0x2000f808   Data          22  gattservapp.o(.bss)
    rsp                                      0x2000f81e   Data          26  gattservapp.o(.bss)
    .bss                                     0x2000f838   Section       22  gapgattserver.o(.bss)
    deviceName                               0x2000f838   Data          22  gapgattserver.o(.bss)
    .bss                                     0x2000f84e   Section       63  peripheral.o(.bss)
    gapRole_ScanRspData                      0x2000f84e   Data          31  peripheral.o(.bss)
    gapRole_IRK                              0x2000f86d   Data          16  peripheral.o(.bss)
    gapRole_SRK                              0x2000f87d   Data          16  peripheral.o(.bss)
    .bss                                     0x2000f890   Section      540  ota_protocol.o(.bss)
    s_ota_ctx                                0x2000f890   Data         540  ota_protocol.o(.bss)
    .bss                                     0x2000faac   Section      456  gpio.o(.bss)
    m_gpioCtx                                0x2000faac   Data         456  gpio.o(.bss)
    .bss                                     0x2000fc74   Section      120  my_printf.o(.bss)
    .bss                                     0x2000fcec   Section       32  uart.o(.bss)
    .bss                                     0x2000fd0c   Section      120  pwrmgr.o(.bss)
    mCtx                                     0x2000fd0c   Data         120  pwrmgr.o(.bss)
    .bss                                     0x2000fd84   Section      444  patch.o(.bss)
    .bss                                     0x2000ff40   Section       40  rf_phy_driver.o(.bss)
    .bss                                     0x2000ff68   Section       65  flash_ext.o(.bss)
    STACK                                    0x2000ffb0   Section     3072  startup_armcm0.o(STACK)
    i.LL_ENC_AES128_Encrypt_X                0x2001200c   Section        0  aes.o(i.LL_ENC_AES128_Encrypt_X)
    i.aes_ccm_phyplus_dec                    0x20012168   Section        0  aes.o(i.aes_ccm_phyplus_dec)
    i.crc16                                  0x20012314   Section        0  crc16.o(i.crc16)
    i.flash_load_parition                    0x20012350   Section        0  aes.o(i.flash_load_parition)
    i.is_crypto_app                          0x2001236c   Section        0  aes.o(i.is_crypto_app)
    i.xor128bit                              0x20012376   Section        0  aes.o(i.xor128bit)
    ota_app_loader_area                      0x20012390   Section        0  ota_protocol.o(ota_app_loader_area)
    ota_app_loader_area                      0x200123b8   Section        0  ota_flash.o(ota_app_loader_area)
    .constdata                               0x200124e4   Section       32  crc16.o(.constdata)
    crc16_table                              0x200124e4   Data          32  crc16.o(.constdata)

    Global Symbols

    Symbol Name                              Value     Ov Type        Size  Object(Section)

    BuildAttributes$$THM_ISAv3M$S$PE$A:L22$X:L11$S22$IEEE1$IW$USESV6$~STKCKD$USESV7$~SHL$OSPACE$EBA8$MICROLIB$REQ8$PRES8$EABIv2 0x00000000   Number         0  anon$$obj.o ABSOLUTE
    __ARM_use_no_argv                        0x00000000   Number         0  main.o ABSOLUTE
    AP_TIMER_IRQHandler                       - Undefined Weak Reference
    __cpp_initialize__aeabi_                  - Undefined Weak Reference
    __cxa_finalize                            - Undefined Weak Reference
    _clock_init                               - Undefined Weak Reference
    _microlib_exit                            - Undefined Weak Reference
    hal_ADC_IRQHandler                        - Undefined Weak Reference
    hal_I2C0_IRQHandler                       - Undefined Weak Reference
    hal_I2C1_IRQHandler                       - Undefined Weak Reference
    hal_KSCAN_IRQHandler                      - Undefined Weak Reference
    hal_SPI0_IRQHandler                       - Undefined Weak Reference
    hal_SPI1_IRQHandler                       - Undefined Weak Reference
    __Vectors_Size                           0x000000c0   Number         0  startup_armcm0.o ABSOLUTE
    jump_to_application                      0x000000d5   Thumb Code     0  rom1Sym.txt ABSOLUTE
    __aeabi_uidiv                            0x00000261   Thumb Code     0  rom1Sym.txt ABSOLUTE
    __aeabi_uidivmod                         0x00000261   Thumb Code     0  rom1Sym.txt ABSOLUTE
    __aeabi_idiv                             0x0000028d   Thumb Code     0  rom1Sym.txt ABSOLUTE
    __aeabi_idivmod                          0x0000028d   Thumb Code     0  rom1Sym.txt ABSOLUTE
    rand                                     0x000002b5   Thumb Code     0  rom1Sym.txt ABSOLUTE
    srand                                    0x000002c7   Thumb Code     0  rom1Sym.txt ABSOLUTE
    memset                                   0x0000030f   Thumb Code     0  rom1Sym.txt ABSOLUTE
    strcat                                   0x00000321   Thumb Code     0  rom1Sym.txt ABSOLUTE
    strlen                                   0x00000339   Thumb Code     0  rom1Sym.txt ABSOLUTE
    strcpy                                   0x00000347   Thumb Code     0  rom1Sym.txt ABSOLUTE
    ATT_BuildErrorRsp                        0x000003d3   Thumb Code     0  rom1Sym.txt ABSOLUTE
    ATT_BuildExchangeMTUReq                  0x000003e9   Thumb Code     0  rom1Sym.txt ABSOLUTE
    ATT_BuildExchangeMTURsp                  0x000003f7   Thumb Code     0  rom1Sym.txt ABSOLUTE
    ATT_BuildExecuteWriteReq                 0x00000405   Thumb Code     0  rom1Sym.txt ABSOLUTE
    ATT_BuildFindByTypeValueReq              0x0000040d   Thumb Code     0  rom1Sym.txt ABSOLUTE
    ATT_BuildFindByTypeValueRsp              0x0000044b   Thumb Code     0  rom1Sym.txt ABSOLUTE
    ATT_BuildFindInfoReq                     0x0000047b   Thumb Code     0  rom1Sym.txt ABSOLUTE
    ATT_BuildFindInfoRsp                     0x00000493   Thumb Code     0  rom1Sym.txt ABSOLUTE
    ATT_BuildHandleValueInd                  0x000004ff   Thumb Code     0  rom1Sym.txt ABSOLUTE
    ATT_BuildPrepareWriteReq                 0x0000051d   Thumb Code     0  rom1Sym.txt ABSOLUTE
    ATT_BuildPrepareWriteRsp                 0x00000545   Thumb Code     0  rom1Sym.txt ABSOLUTE
    ATT_BuildReadBlobReq                     0x0000056d   Thumb Code     0  rom1Sym.txt ABSOLUTE
    ATT_BuildReadBlobRsp                     0x00000585   Thumb Code     0  rom1Sym.txt ABSOLUTE
    ATT_BuildReadByGrpTypeRsp                0x00000595   Thumb Code     0  rom1Sym.txt ABSOLUTE
    ATT_BuildReadByTypeReq                   0x000005b1   Thumb Code     0  rom1Sym.txt ABSOLUTE
    ATT_BuildReadByTypeRsp                   0x000005d9   Thumb Code     0  rom1Sym.txt ABSOLUTE
    ATT_BuildReadMultiReq                    0x000005f5   Thumb Code     0  rom1Sym.txt ABSOLUTE
    ATT_BuildReadMultiRsp                    0x00000619   Thumb Code     0  rom1Sym.txt ABSOLUTE
    ATT_BuildReadReq                         0x00000629   Thumb Code     0  rom1Sym.txt ABSOLUTE
    ATT_BuildReadRsp                         0x00000637   Thumb Code     0  rom1Sym.txt ABSOLUTE
    ATT_BuildWriteReq                        0x00000647   Thumb Code     0  rom1Sym.txt ABSOLUTE
    ATT_CompareUUID                          0x00000665   Thumb Code     0  rom1Sym.txt ABSOLUTE
    ATT_ConvertUUIDto128                     0x000006c1   Thumb Code     0  rom1Sym.txt ABSOLUTE
    ATT_ConvertUUIDto16                      0x000006ed   Thumb Code     0  rom1Sym.txt ABSOLUTE
    ATT_ErrorRsp                             0x00000731   Thumb Code     0  rom1Sym.txt ABSOLUTE
    ATT_ExchangeMTUReq                       0x00000745   Thumb Code     0  rom1Sym.txt ABSOLUTE
    ATT_ExchangeMTURsp                       0x00000761   Thumb Code     0  rom1Sym.txt ABSOLUTE
    ATT_ExecuteWriteReq                      0x0000077d   Thumb Code     0  rom1Sym.txt ABSOLUTE
    ATT_ExecuteWriteRsp                      0x00000791   Thumb Code     0  rom1Sym.txt ABSOLUTE
    ATT_FindByTypeValueReq                   0x000007a1   Thumb Code     0  rom1Sym.txt ABSOLUTE
    ATT_FindByTypeValueRsp                   0x000007bd   Thumb Code     0  rom1Sym.txt ABSOLUTE
    ATT_FindInfoReq                          0x000007d9   Thumb Code     0  rom1Sym.txt ABSOLUTE
    ATT_FindInfoRsp                          0x000007ed   Thumb Code     0  rom1Sym.txt ABSOLUTE
    ATT_GetParamValue                        0x00000815   Thumb Code     0  rom1Sym.txt ABSOLUTE
    ATT_HandleValueCfm                       0x00000819   Thumb Code     0  rom1Sym.txt ABSOLUTE
    ATT_HandleValueInd                       0x00000829   Thumb Code     0  rom1Sym.txt ABSOLUTE
    ATT_HandleValueNoti                      0x0000083d   Thumb Code     0  rom1Sym.txt ABSOLUTE
    ATT_ParseErrorRsp                        0x00000851   Thumb Code     0  rom1Sym.txt ABSOLUTE
    ATT_ParseExchangeMTUReq                  0x0000086f   Thumb Code     0  rom1Sym.txt ABSOLUTE
    ATT_ParseExchangeMTURsp                  0x00000887   Thumb Code     0  rom1Sym.txt ABSOLUTE
    ATT_ParseExecuteWriteReq                 0x0000089d   Thumb Code     0  rom1Sym.txt ABSOLUTE
    ATT_ParseExecuteWriteRsp                 0x000008af   Thumb Code     0  rom1Sym.txt ABSOLUTE
    ATT_ParseFindByTypeValueReq              0x000008bb   Thumb Code     0  rom1Sym.txt ABSOLUTE
    ATT_ParseFindByTypeValueRsp              0x00000903   Thumb Code     0  rom1Sym.txt ABSOLUTE
    ATT_ParseFindInfoReq                     0x00000943   Thumb Code     0  rom1Sym.txt ABSOLUTE
    ATT_ParseFindInfoRsp                     0x00000965   Thumb Code     0  rom1Sym.txt ABSOLUTE
    ATT_ParseHandleValueCfm                  0x00000a0d   Thumb Code     0  rom1Sym.txt ABSOLUTE
    ATT_ParseHandleValueInd                  0x00000a19   Thumb Code     0  rom1Sym.txt ABSOLUTE
    ATT_ParsePacket                          0x00000a47   Thumb Code     0  rom1Sym.txt ABSOLUTE
    ATT_ParsePrepareWriteReq                 0x00000ab3   Thumb Code     0  rom1Sym.txt ABSOLUTE
    ATT_ParsePrepareWriteRsp                 0x00000aeb   Thumb Code     0  rom1Sym.txt ABSOLUTE
    ATT_ParseReadBlobReq                     0x00000b25   Thumb Code     0  rom1Sym.txt ABSOLUTE
    ATT_ParseReadBlobRsp                     0x00000b47   Thumb Code     0  rom1Sym.txt ABSOLUTE
    ATT_ParseReadByGrpTypeRsp                0x00000b67   Thumb Code     0  rom1Sym.txt ABSOLUTE
    ATT_ParseReadByTypeReq                   0x00000b9f   Thumb Code     0  rom1Sym.txt ABSOLUTE
    ATT_ParseReadByTypeRsp                   0x00000bdd   Thumb Code     0  rom1Sym.txt ABSOLUTE
    ATT_ParseReadMultiReq                    0x00000c15   Thumb Code     0  rom1Sym.txt ABSOLUTE
    ATT_ParseReadMultiRsp                    0x00000c4b   Thumb Code     0  rom1Sym.txt ABSOLUTE
    ATT_ParseReadReq                         0x00000c6b   Thumb Code     0  rom1Sym.txt ABSOLUTE
    ATT_ParseReadRsp                         0x00000c83   Thumb Code     0  rom1Sym.txt ABSOLUTE
    ATT_ParseWriteReq                        0x00000c9f   Thumb Code     0  rom1Sym.txt ABSOLUTE
    ATT_ParseWriteRsp                        0x00000cdf   Thumb Code     0  rom1Sym.txt ABSOLUTE
    ATT_PrepareWriteReq                      0x00000ced   Thumb Code     0  rom1Sym.txt ABSOLUTE
    ATT_PrepareWriteRsp                      0x00000d01   Thumb Code     0  rom1Sym.txt ABSOLUTE
    ATT_ReadBlobReq                          0x00000d15   Thumb Code     0  rom1Sym.txt ABSOLUTE
    ATT_ReadBlobRsp                          0x00000d29   Thumb Code     0  rom1Sym.txt ABSOLUTE
    ATT_ReadByGrpTypeReq                     0x00000d3d   Thumb Code     0  rom1Sym.txt ABSOLUTE
    ATT_ReadByGrpTypeRsp                     0x00000d5d   Thumb Code     0  rom1Sym.txt ABSOLUTE
    ATT_ReadByTypeReq                        0x00000d79   Thumb Code     0  rom1Sym.txt ABSOLUTE
    ATT_ReadByTypeRsp                        0x00000d99   Thumb Code     0  rom1Sym.txt ABSOLUTE
    ATT_ReadMultiReq                         0x00000db5   Thumb Code     0  rom1Sym.txt ABSOLUTE
    ATT_ReadMultiRsp                         0x00000dd1   Thumb Code     0  rom1Sym.txt ABSOLUTE
    ATT_ReadReq                              0x00000de5   Thumb Code     0  rom1Sym.txt ABSOLUTE
    ATT_ReadRsp                              0x00000df9   Thumb Code     0  rom1Sym.txt ABSOLUTE
    ATT_SetParamValue                        0x00000e0d   Thumb Code     0  rom1Sym.txt ABSOLUTE
    ATT_WriteReq                             0x00000e11   Thumb Code     0  rom1Sym.txt ABSOLUTE
    ATT_WriteRsp                             0x00000e41   Thumb Code     0  rom1Sym.txt ABSOLUTE
    GAP_Authenticate                         0x00000e51   Thumb Code     0  rom1Sym.txt ABSOLUTE
    GAP_Bond                                 0x00000efd   Thumb Code     0  rom1Sym.txt ABSOLUTE
    GAP_CentConnRegister                     0x00000f85   Thumb Code     0  rom1Sym.txt ABSOLUTE
    GAP_CentDevMgrInit                       0x00000fa9   Thumb Code     0  rom1Sym.txt ABSOLUTE
    GAP_ConfigDeviceAddr                     0x00000fe5   Thumb Code     0  rom1Sym.txt ABSOLUTE
    GAP_DeviceDiscoveryCancel                0x000010ed   Thumb Code     0  rom1Sym.txt ABSOLUTE
    GAP_DeviceDiscoveryRequest               0x00001125   Thumb Code     0  rom1Sym.txt ABSOLUTE
    GAP_EndDiscoverable                      0x000011d1   Thumb Code     0  rom1Sym.txt ABSOLUTE
    GAP_EstablishLinkReq                     0x00001225   Thumb Code     0  rom1Sym.txt ABSOLUTE
    GAP_GetAdvToken                          0x0000132d   Thumb Code     0  rom1Sym.txt ABSOLUTE
    GAP_GetParamValue                        0x00001351   Thumb Code     0  rom1Sym.txt ABSOLUTE
    GAP_Init                                 0x00001369   Thumb Code     0  rom1Sym.txt ABSOLUTE
    GAP_MakeDiscoverable                     0x00001389   Thumb Code     0  rom1Sym.txt ABSOLUTE
    GAP_NumActiveConnections                 0x00001449   Thumb Code     0  rom1Sym.txt ABSOLUTE
    GAP_ParamsInit                           0x00001451   Thumb Code     0  rom1Sym.txt ABSOLUTE
    GAP_PasscodeUpdate                       0x00001489   Thumb Code     0  rom1Sym.txt ABSOLUTE
    GAP_PasskeyUpdate                        0x000014d1   Thumb Code     0  rom1Sym.txt ABSOLUTE
    GAP_PeriDevMgrInit                       0x00001509   Thumb Code     0  rom1Sym.txt ABSOLUTE
    GAP_ProcessEvent                         0x00001551   Thumb Code     0  rom1Sym.txt ABSOLUTE
    GAP_RegisterForHCIMsgs                   0x00001639   Thumb Code     0  rom1Sym.txt ABSOLUTE
    GAP_RemoveAdvToken                       0x00001645   Thumb Code     0  rom1Sym.txt ABSOLUTE
    GAP_ResolvePrivateAddr                   0x00001661   Thumb Code     0  rom1Sym.txt ABSOLUTE
    GAP_SecParamsInit                        0x00001669   Thumb Code     0  rom1Sym.txt ABSOLUTE
    GAP_SendSlaveSecurityRequest             0x000016a9   Thumb Code     0  rom1Sym.txt ABSOLUTE
    GAP_SetAdvToken                          0x000016f9   Thumb Code     0  rom1Sym.txt ABSOLUTE
    GAP_SetParamValue                        0x00001761   Thumb Code     0  rom1Sym.txt ABSOLUTE
    GAP_Signable                             0x00001781   Thumb Code     0  rom1Sym.txt ABSOLUTE
    GAP_TerminateAuth                        0x000017d1   Thumb Code     0  rom1Sym.txt ABSOLUTE
    GAP_TerminateLinkReq                     0x000017f1   Thumb Code     0  rom1Sym.txt ABSOLUTE
    GAP_UpdateAdvTokens                      0x00001881   Thumb Code     0  rom1Sym.txt ABSOLUTE
    GAP_UpdateAdvertisingData                0x0000189d   Thumb Code     0  rom1Sym.txt ABSOLUTE
    GAP_UpdateLinkParamReq                   0x00001929   Thumb Code     0  rom1Sym.txt ABSOLUTE
    GATT_AppCompletedMsg                     0x00001979   Thumb Code     0  rom1Sym.txt ABSOLUTE
    GATT_DeregisterService                   0x000019a5   Thumb Code     0  rom1Sym.txt ABSOLUTE
    GATT_DiscAllCharDescs                    0x000019f1   Thumb Code     0  rom1Sym.txt ABSOLUTE
    GATT_DiscAllChars                        0x00001a03   Thumb Code     0  rom1Sym.txt ABSOLUTE
    GATT_DiscAllPrimaryServices              0x00001a25   Thumb Code     0  rom1Sym.txt ABSOLUTE
    GATT_DiscCharsByUUID                     0x00001a4b   Thumb Code     0  rom1Sym.txt ABSOLUTE
    GATT_DiscPrimaryServiceByUUID            0x00001a57   Thumb Code     0  rom1Sym.txt ABSOLUTE
    GATT_ExchangeMTU                         0x00001a9d   Thumb Code     0  rom1Sym.txt ABSOLUTE
    GATT_ExecuteWriteReq                     0x00001ad9   Thumb Code     0  rom1Sym.txt ABSOLUTE
    GATT_FindHandle                          0x00001b1d   Thumb Code     0  rom1Sym.txt ABSOLUTE
    GATT_FindHandleUUID                      0x00001b69   Thumb Code     0  rom1Sym.txt ABSOLUTE
    GATT_FindIncludedServices                0x00001bcd   Thumb Code     0  rom1Sym.txt ABSOLUTE
    GATT_FindNextAttr                        0x00001bed   Thumb Code     0  rom1Sym.txt ABSOLUTE
    GATT_FindUUIDRec                         0x00001c85   Thumb Code     0  rom1Sym.txt ABSOLUTE
    GATT_Indication                          0x00001d99   Thumb Code     0  rom1Sym.txt ABSOLUTE
    GATT_Init                                0x00001de1   Thumb Code     0  rom1Sym.txt ABSOLUTE
    GATT_InitClient                          0x00001df9   Thumb Code     0  rom1Sym.txt ABSOLUTE
    GATT_InitServer                          0x00001e55   Thumb Code     0  rom1Sym.txt ABSOLUTE
    GATT_Notification                        0x00001e9d   Thumb Code     0  rom1Sym.txt ABSOLUTE
    GATT_PrepareWriteReq                     0x00001ecd   Thumb Code     0  rom1Sym.txt ABSOLUTE
    GATT_ProcessEvent                        0x00001f11   Thumb Code     0  rom1Sym.txt ABSOLUTE
    GATT_ReadCharDesc                        0x00001f41   Thumb Code     0  rom1Sym.txt ABSOLUTE
    GATT_ReadCharValue                       0x00001f49   Thumb Code     0  rom1Sym.txt ABSOLUTE
    GATT_ReadLongCharDesc                    0x00001f51   Thumb Code     0  rom1Sym.txt ABSOLUTE
    GATT_ReadLongCharValue                   0x00001f59   Thumb Code     0  rom1Sym.txt ABSOLUTE
    GATT_ReadMultiCharValues                 0x00001f61   Thumb Code     0  rom1Sym.txt ABSOLUTE
    GATT_ReadUsingCharUUID                   0x00001f9d   Thumb Code     0  rom1Sym.txt ABSOLUTE
    GATT_RegisterForInd                      0x00001fa9   Thumb Code     0  rom1Sym.txt ABSOLUTE
    GATT_RegisterForReq                      0x00001fb5   Thumb Code     0  rom1Sym.txt ABSOLUTE
    GATT_RegisterService                     0x00001fc1   Thumb Code     0  rom1Sym.txt ABSOLUTE
    GATT_ReliableWrites                      0x00002069   Thumb Code     0  rom1Sym.txt ABSOLUTE
    GATT_ServiceChangedInd                   0x000020c5   Thumb Code     0  rom1Sym.txt ABSOLUTE
    GATT_ServiceNumAttrs                     0x00002111   Thumb Code     0  rom1Sym.txt ABSOLUTE
    GATT_SetHostToAppFlowCtrl                0x00002131   Thumb Code     0  rom1Sym.txt ABSOLUTE
    GATT_SetNextHandle                       0x00002141   Thumb Code     0  rom1Sym.txt ABSOLUTE
    GATT_SignedWriteNoRsp                    0x00002143   Thumb Code     0  rom1Sym.txt ABSOLUTE
    GATT_VerifyReadPermissions               0x0000216f   Thumb Code     0  rom1Sym.txt ABSOLUTE
    GATT_VerifyWritePermissions              0x000021a1   Thumb Code     0  rom1Sym.txt ABSOLUTE
    GATT_WriteCharDesc                       0x000021e3   Thumb Code     0  rom1Sym.txt ABSOLUTE
    GATT_WriteCharValue                      0x000021eb   Thumb Code     0  rom1Sym.txt ABSOLUTE
    GATT_WriteLongCharDesc                   0x000021f3   Thumb Code     0  rom1Sym.txt ABSOLUTE
    GATT_WriteLongCharValue                  0x000021fb   Thumb Code     0  rom1Sym.txt ABSOLUTE
    GATT_WriteNoRsp                          0x00002203   Thumb Code     0  rom1Sym.txt ABSOLUTE
    GPIO_IRQHandler                          0x0000222f   Thumb Code     0  rom1Sym.txt ABSOLUTE
    HCI_CommandCompleteEvent                 0x00002231   Thumb Code     0  rom1Sym.txt ABSOLUTE
    HCI_CommandStatusEvent                   0x000022bd   Thumb Code     0  rom1Sym.txt ABSOLUTE
    HCI_DataBufferOverflowEvent              0x00002311   Thumb Code     0  rom1Sym.txt ABSOLUTE
    HCI_DisconnectCmd                        0x00002351   Thumb Code     0  rom1Sym.txt ABSOLUTE
    HCI_EXT_AdvEventNoticeCmd                0x00002365   Thumb Code     0  rom1Sym.txt ABSOLUTE
    HCI_EXT_BuildRevisionCmd                 0x0000236d   Thumb Code     0  rom1Sym.txt ABSOLUTE
    HCI_EXT_ClkDivOnHaltCmd                  0x000023ad   Thumb Code     0  rom1Sym.txt ABSOLUTE
    HCI_EXT_ConnEventNoticeCmd               0x000023d1   Thumb Code     0  rom1Sym.txt ABSOLUTE
    HCI_EXT_DeclareNvUsageCmd                0x000023d9   Thumb Code     0  rom1Sym.txt ABSOLUTE
    HCI_EXT_DecryptCmd                       0x000023fd   Thumb Code     0  rom1Sym.txt ABSOLUTE
    HCI_EXT_DelaySleepCmd                    0x0000244d   Thumb Code     0  rom1Sym.txt ABSOLUTE
    HCI_EXT_DisconnectImmedCmd               0x00002471   Thumb Code     0  rom1Sym.txt ABSOLUTE
    HCI_EXT_EnablePTMCmd                     0x00002495   Thumb Code     0  rom1Sym.txt ABSOLUTE
    HCI_EXT_EndModemTestCmd                  0x000024a9   Thumb Code     0  rom1Sym.txt ABSOLUTE
    HCI_EXT_ExtendRfRangeCmd                 0x000024d1   Thumb Code     0  rom1Sym.txt ABSOLUTE
    HCI_EXT_HaltDuringRfCmd                  0x00002505   Thumb Code     0  rom1Sym.txt ABSOLUTE
    HCI_EXT_MapPmIoPortCmd                   0x00002529   Thumb Code     0  rom1Sym.txt ABSOLUTE
    HCI_EXT_ModemHopTestTxCmd                0x00002551   Thumb Code     0  rom1Sym.txt ABSOLUTE
    HCI_EXT_ModemTestRxCmd                   0x00002579   Thumb Code     0  rom1Sym.txt ABSOLUTE
    HCI_EXT_ModemTestTxCmd                   0x0000259d   Thumb Code     0  rom1Sym.txt ABSOLUTE
    HCI_EXT_NumComplPktsLimitCmd             0x000025c5   Thumb Code     0  rom1Sym.txt ABSOLUTE
    HCI_EXT_OnePktPerEvtCmd                  0x000025ed   Thumb Code     0  rom1Sym.txt ABSOLUTE
    HCI_EXT_OverlappedProcessingCmd          0x00002615   Thumb Code     0  rom1Sym.txt ABSOLUTE
    HCI_EXT_PERbyChanCmd                     0x00002639   Thumb Code     0  rom1Sym.txt ABSOLUTE
    HCI_EXT_PacketErrorRateCmd               0x00002661   Thumb Code     0  rom1Sym.txt ABSOLUTE
    HCI_EXT_ResetSystemCmd                   0x00002695   Thumb Code     0  rom1Sym.txt ABSOLUTE
    HCI_EXT_SaveFreqTuneCmd                  0x000026b9   Thumb Code     0  rom1Sym.txt ABSOLUTE
    HCI_EXT_SetBDADDRCmd                     0x000026e1   Thumb Code     0  rom1Sym.txt ABSOLUTE
    HCI_EXT_SetFastTxResponseTimeCmd         0x00002719   Thumb Code     0  rom1Sym.txt ABSOLUTE
    HCI_EXT_SetFreqTuneCmd                   0x0000273d   Thumb Code     0  rom1Sym.txt ABSOLUTE
    HCI_EXT_SetLocalSupportedFeaturesCmd     0x00002761   Thumb Code     0  rom1Sym.txt ABSOLUTE
    HCI_EXT_SetMaxDtmTxPowerCmd              0x00002785   Thumb Code     0  rom1Sym.txt ABSOLUTE
    HCI_EXT_SetRxGainCmd                     0x000027a9   Thumb Code     0  rom1Sym.txt ABSOLUTE
    HCI_EXT_SetSCACmd                        0x000027d9   Thumb Code     0  rom1Sym.txt ABSOLUTE
    HCI_EXT_SetSlaveLatencyOverrideCmd       0x000027fd   Thumb Code     0  rom1Sym.txt ABSOLUTE
    HCI_EXT_SetTxPowerCmd                    0x00002821   Thumb Code     0  rom1Sym.txt ABSOLUTE
    HCI_ExtTaskRegister                      0x00002851   Thumb Code     0  rom1Sym.txt ABSOLUTE
    HCI_GAPTaskRegister                      0x0000285d   Thumb Code     0  rom1Sym.txt ABSOLUTE
    HCI_HardwareErrorEvent                   0x00002869   Thumb Code     0  rom1Sym.txt ABSOLUTE
    HCI_HostBufferSizeCmd                    0x000028b5   Thumb Code     0  rom1Sym.txt ABSOLUTE
    HCI_HostNumCompletedPktCmd               0x000028e1   Thumb Code     0  rom1Sym.txt ABSOLUTE
    HCI_Init                                 0x0000293d   Thumb Code     0  rom1Sym.txt ABSOLUTE
    HCI_L2CAPTaskRegister                    0x00002979   Thumb Code     0  rom1Sym.txt ABSOLUTE
    HCI_LE_AddWhiteListCmd                   0x00002985   Thumb Code     0  rom1Sym.txt ABSOLUTE
    HCI_LE_ClearWhiteListCmd                 0x000029a5   Thumb Code     0  rom1Sym.txt ABSOLUTE
    HCI_LE_ConnUpdateCmd                     0x000029c1   Thumb Code     0  rom1Sym.txt ABSOLUTE
    HCI_LE_CreateConnCancelCmd               0x000029e1   Thumb Code     0  rom1Sym.txt ABSOLUTE
    HCI_LE_CreateConnCmd                     0x000029fd   Thumb Code     0  rom1Sym.txt ABSOLUTE
    HCI_LE_EncryptCmd                        0x00002a3d   Thumb Code     0  rom1Sym.txt ABSOLUTE
    HCI_LE_LtkReqNegReplyCmd                 0x00002a7d   Thumb Code     0  rom1Sym.txt ABSOLUTE
    HCI_LE_LtkReqReplyCmd                    0x00002aa5   Thumb Code     0  rom1Sym.txt ABSOLUTE
    HCI_LE_RandCmd                           0x00002acd   Thumb Code     0  rom1Sym.txt ABSOLUTE
    HCI_LE_ReadAdvChanTxPowerCmd             0x00002b01   Thumb Code     0  rom1Sym.txt ABSOLUTE
    HCI_LE_ReadBufSizeCmd                    0x00002b21   Thumb Code     0  rom1Sym.txt ABSOLUTE
    HCI_LE_ReadChannelMapCmd                 0x00002b45   Thumb Code     0  rom1Sym.txt ABSOLUTE
    HCI_LE_ReadLocalSupportedFeaturesCmd     0x00002b71   Thumb Code     0  rom1Sym.txt ABSOLUTE
    HCI_LE_ReadRemoteUsedFeaturesCmd         0x00002b91   Thumb Code     0  rom1Sym.txt ABSOLUTE
    HCI_LE_ReadSupportedStatesCmd            0x00002ba5   Thumb Code     0  rom1Sym.txt ABSOLUTE
    HCI_LE_ReadWhiteListSizeCmd              0x00002bcd   Thumb Code     0  rom1Sym.txt ABSOLUTE
    HCI_LE_ReceiverTestCmd                   0x00002bed   Thumb Code     0  rom1Sym.txt ABSOLUTE
    HCI_LE_RemoveWhiteListCmd                0x00002c01   Thumb Code     0  rom1Sym.txt ABSOLUTE
    HCI_LE_SetAdvDataCmd                     0x00002c21   Thumb Code     0  rom1Sym.txt ABSOLUTE
    HCI_LE_SetAdvEnableCmd                   0x00002c3d   Thumb Code     0  rom1Sym.txt ABSOLUTE
    HCI_LE_SetAdvParamCmd                    0x00002c59   Thumb Code     0  rom1Sym.txt ABSOLUTE
    HCI_LE_SetEventMaskCmd                   0x00002c89   Thumb Code     0  rom1Sym.txt ABSOLUTE
    HCI_LE_SetHostChanClassificationCmd      0x00002cb5   Thumb Code     0  rom1Sym.txt ABSOLUTE
    HCI_LE_SetRandomAddressCmd               0x00002cd1   Thumb Code     0  rom1Sym.txt ABSOLUTE
    HCI_LE_SetScanEnableCmd                  0x00002cf5   Thumb Code     0  rom1Sym.txt ABSOLUTE
    HCI_LE_SetScanParamCmd                   0x00002d11   Thumb Code     0  rom1Sym.txt ABSOLUTE
    HCI_LE_SetScanRspDataCmd                 0x00002d31   Thumb Code     0  rom1Sym.txt ABSOLUTE
    HCI_LE_StartEncyptCmd                    0x00002d4d   Thumb Code     0  rom1Sym.txt ABSOLUTE
    HCI_LE_TestEndCmd                        0x00002d61   Thumb Code     0  rom1Sym.txt ABSOLUTE
    HCI_LE_TransmitterTestCmd                0x00002d89   Thumb Code     0  rom1Sym.txt ABSOLUTE
    HCI_NumOfCompletedPacketsEvent           0x00002da5   Thumb Code     0  rom1Sym.txt ABSOLUTE
    HCI_ProcessEvent                         0x00002e39   Thumb Code     0  rom1Sym.txt ABSOLUTE
    HCI_ReadBDADDRCmd                        0x00002e8d   Thumb Code     0  rom1Sym.txt ABSOLUTE
    HCI_ReadLocalSupportedCommandsCmd        0x00002ead   Thumb Code     0  rom1Sym.txt ABSOLUTE
    HCI_ReadLocalSupportedFeaturesCmd        0x00002ec5   Thumb Code     0  rom1Sym.txt ABSOLUTE
    HCI_ReadLocalVersionInfoCmd              0x00002ee9   Thumb Code     0  rom1Sym.txt ABSOLUTE
    HCI_ReadRemoteVersionInfoCmd             0x00002f31   Thumb Code     0  rom1Sym.txt ABSOLUTE
    HCI_ReadRssiCmd                          0x00002f5d   Thumb Code     0  rom1Sym.txt ABSOLUTE
    HCI_ReadTransmitPowerLevelCmd            0x00002f89   Thumb Code     0  rom1Sym.txt ABSOLUTE
    HCI_ResetCmd                             0x00002fb5   Thumb Code     0  rom1Sym.txt ABSOLUTE
    HCI_ReverseBytes                         0x00002fe1   Thumb Code     0  rom1Sym.txt ABSOLUTE
    HCI_SMPTaskRegister                      0x00003001   Thumb Code     0  rom1Sym.txt ABSOLUTE
    HCI_SendCommandCompleteEvent             0x0000300d   Thumb Code     0  rom1Sym.txt ABSOLUTE
    HCI_SendCommandStatusEvent               0x000030bd   Thumb Code     0  rom1Sym.txt ABSOLUTE
    HCI_SendControllerToHostEvent            0x000030dd   Thumb Code     0  rom1Sym.txt ABSOLUTE
    HCI_SendDataPkt                          0x00003131   Thumb Code     0  rom1Sym.txt ABSOLUTE
    HCI_SetControllerToHostFlowCtrlCmd       0x00003161   Thumb Code     0  rom1Sym.txt ABSOLUTE
    HCI_SetEventMaskCmd                      0x000031ad   Thumb Code     0  rom1Sym.txt ABSOLUTE
    HCI_TestAppTaskRegister                  0x000031dd   Thumb Code     0  rom1Sym.txt ABSOLUTE
    HCI_ValidConnTimeParams                  0x000031e9   Thumb Code     0  rom1Sym.txt ABSOLUTE
    HCI_VendorSpecifcCommandCompleteEvent    0x00003229   Thumb Code     0  rom1Sym.txt ABSOLUTE
    HCI_bm_alloc                             0x00003239   Thumb Code     0  rom1Sym.txt ABSOLUTE
    I2S_IRQHandler                           0x00003271   Thumb Code     0  rom1Sym.txt ABSOLUTE
    I2S_init                                 0x00003275   Thumb Code     0  rom1Sym.txt ABSOLUTE
    I2S_receive                              0x0000332d   Thumb Code     0  rom1Sym.txt ABSOLUTE
    I2S_send                                 0x00003345   Thumb Code     0  rom1Sym.txt ABSOLUTE
    L2CAP_BuildCmdReject                     0x0000335d   Thumb Code     0  rom1Sym.txt ABSOLUTE
    L2CAP_BuildInfoRsp                       0x0000339f   Thumb Code     0  rom1Sym.txt ABSOLUTE
    L2CAP_BuildParamUpdateRsp                0x000033e5   Thumb Code     0  rom1Sym.txt ABSOLUTE
    L2CAP_CmdReject                          0x000033f5   Thumb Code     0  rom1Sym.txt ABSOLUTE
    L2CAP_ConnParamUpdateReq                 0x0000340d   Thumb Code     0  rom1Sym.txt ABSOLUTE
    L2CAP_ConnParamUpdateRsp                 0x00003425   Thumb Code     0  rom1Sym.txt ABSOLUTE
    L2CAP_EchoReq                            0x0000343d   Thumb Code     0  rom1Sym.txt ABSOLUTE
    L2CAP_HostNumCompletedPkts               0x00003465   Thumb Code     0  rom1Sym.txt ABSOLUTE
    L2CAP_InfoReq                            0x0000347d   Thumb Code     0  rom1Sym.txt ABSOLUTE
    L2CAP_Init                               0x00003495   Thumb Code     0  rom1Sym.txt ABSOLUTE
    L2CAP_ParseInfoReq                       0x000034d9   Thumb Code     0  rom1Sym.txt ABSOLUTE
    L2CAP_ParseParamUpdateReq                0x000034ef   Thumb Code     0  rom1Sym.txt ABSOLUTE
    L2CAP_ProcessEvent                       0x00003525   Thumb Code     0  rom1Sym.txt ABSOLUTE
    L2CAP_RegisterApp                        0x00003555   Thumb Code     0  rom1Sym.txt ABSOLUTE
    L2CAP_SendData                           0x0000357d   Thumb Code     0  rom1Sym.txt ABSOLUTE
    L2CAP_SetControllerToHostFlowCtrl        0x000035ed   Thumb Code     0  rom1Sym.txt ABSOLUTE
    L2CAP_bm_alloc                           0x00003621   Thumb Code     0  rom1Sym.txt ABSOLUTE
    LL_AddWhiteListDevice                    0x0000363d   Thumb Code     0  rom1Sym.txt ABSOLUTE
    LL_AdvReportCback                        0x000036b9   Thumb Code     0  rom1Sym.txt ABSOLUTE
    LL_ChanMapUpdate                         0x000037c1   Thumb Code     0  rom1Sym.txt ABSOLUTE
    LL_ClearWhiteList                        0x00003869   Thumb Code     0  rom1Sym.txt ABSOLUTE
    LL_ConnActive                            0x000038bd   Thumb Code     0  rom1Sym.txt ABSOLUTE
    LL_ConnParamUpdateCback                  0x000038d9   Thumb Code     0  rom1Sym.txt ABSOLUTE
    LL_ConnUpdate                            0x00003991   Thumb Code     0  rom1Sym.txt ABSOLUTE
    LL_ConnectionCompleteCback               0x00003995   Thumb Code     0  rom1Sym.txt ABSOLUTE
    LL_CreateConn                            0x00003abd   Thumb Code     0  rom1Sym.txt ABSOLUTE
    LL_CreateConnCancel                      0x00003ac1   Thumb Code     0  rom1Sym.txt ABSOLUTE
    LL_CtrlToHostFlowControl                 0x00003ac5   Thumb Code     0  rom1Sym.txt ABSOLUTE
    LL_DirectTestEnd                         0x00003ae5   Thumb Code     0  rom1Sym.txt ABSOLUTE
    LL_DirectTestEndDoneCback                0x00003b01   Thumb Code     0  rom1Sym.txt ABSOLUTE
    LL_DirectTestRxTest                      0x00003b1d   Thumb Code     0  rom1Sym.txt ABSOLUTE
    LL_DirectTestTxTest                      0x00003b39   Thumb Code     0  rom1Sym.txt ABSOLUTE
    LL_Disconnect                            0x00003b55   Thumb Code     0  rom1Sym.txt ABSOLUTE
    LL_DisconnectCback                       0x00003be9   Thumb Code     0  rom1Sym.txt ABSOLUTE
    LL_ENC_AES128_Encrypt                    0x00003c75   Thumb Code     0  rom1Sym.txt ABSOLUTE
    LL_ENC_Decrypt                           0x00003da5   Thumb Code     0  rom1Sym.txt ABSOLUTE
    LL_ENC_Encrypt                           0x00003f3d   Thumb Code     0  rom1Sym.txt ABSOLUTE
    LL_ENC_GenDeviceIV                       0x000040c1   Thumb Code     0  rom1Sym.txt ABSOLUTE
    LL_ENC_GenDeviceSKD                      0x000040f1   Thumb Code     0  rom1Sym.txt ABSOLUTE
    LL_ENC_GenerateNonce                     0x00004121   Thumb Code     0  rom1Sym.txt ABSOLUTE
    LL_ENC_GeneratePseudoRandNum             0x00004159   Thumb Code     0  rom1Sym.txt ABSOLUTE
    LL_ENC_GenerateTrueRandNum               0x0000415d   Thumb Code     0  rom1Sym.txt ABSOLUTE
    LL_ENC_LoadKey                           0x000041d5   Thumb Code     0  rom1Sym.txt ABSOLUTE
    LL_ENC_ReverseBytes                      0x00004239   Thumb Code     0  rom1Sym.txt ABSOLUTE
    LL_EXT_AdvEventNotice                    0x00004259   Thumb Code     0  rom1Sym.txt ABSOLUTE
    LL_EXT_BuildRevision                     0x0000425d   Thumb Code     0  rom1Sym.txt ABSOLUTE
    LL_EXT_ClkDivOnHalt                      0x00004261   Thumb Code     0  rom1Sym.txt ABSOLUTE
    LL_EXT_ConnEventNotice                   0x00004265   Thumb Code     0  rom1Sym.txt ABSOLUTE
    LL_EXT_DeclareNvUsage                    0x00004269   Thumb Code     0  rom1Sym.txt ABSOLUTE
    LL_EXT_Decrypt                           0x0000426d   Thumb Code     0  rom1Sym.txt ABSOLUTE
    LL_EXT_DelaySleep                        0x00004271   Thumb Code     0  rom1Sym.txt ABSOLUTE
    LL_EXT_DisconnectImmed                   0x00004275   Thumb Code     0  rom1Sym.txt ABSOLUTE
    LL_EXT_EndModemTest                      0x00004279   Thumb Code     0  rom1Sym.txt ABSOLUTE
    LL_EXT_ExtendRfRange                     0x0000427d   Thumb Code     0  rom1Sym.txt ABSOLUTE
    LL_EXT_ExtendRfRangeCback                0x00004281   Thumb Code     0  rom1Sym.txt ABSOLUTE
    LL_EXT_HaltDuringRf                      0x000042a1   Thumb Code     0  rom1Sym.txt ABSOLUTE
    LL_EXT_MapPmIoPort                       0x000042a5   Thumb Code     0  rom1Sym.txt ABSOLUTE
    LL_EXT_ModemHopTestTx                    0x000042a9   Thumb Code     0  rom1Sym.txt ABSOLUTE
    LL_EXT_ModemTestRx                       0x000042ad   Thumb Code     0  rom1Sym.txt ABSOLUTE
    LL_EXT_ModemTestTx                       0x000042b1   Thumb Code     0  rom1Sym.txt ABSOLUTE
    LL_EXT_NumComplPktsLimit                 0x000042b5   Thumb Code     0  rom1Sym.txt ABSOLUTE
    LL_EXT_OnePacketPerEvent                 0x000042cd   Thumb Code     0  rom1Sym.txt ABSOLUTE
    LL_EXT_OverlappedProcessing              0x000042d1   Thumb Code     0  rom1Sym.txt ABSOLUTE
    LL_EXT_PERbyChan                         0x000042d5   Thumb Code     0  rom1Sym.txt ABSOLUTE
    LL_EXT_PacketErrorRate                   0x000042d9   Thumb Code     0  rom1Sym.txt ABSOLUTE
    LL_EXT_PacketErrorRateCback              0x000042dd   Thumb Code     0  rom1Sym.txt ABSOLUTE
    LL_EXT_ResetSystem                       0x00004319   Thumb Code     0  rom1Sym.txt ABSOLUTE
    LL_EXT_SaveFreqTune                      0x0000431d   Thumb Code     0  rom1Sym.txt ABSOLUTE
    LL_EXT_SetBDADDR                         0x00004321   Thumb Code     0  rom1Sym.txt ABSOLUTE
    LL_EXT_SetFastTxResponseTime             0x00004325   Thumb Code     0  rom1Sym.txt ABSOLUTE
    LL_EXT_SetFreqTune                       0x00004329   Thumb Code     0  rom1Sym.txt ABSOLUTE
    LL_EXT_SetLocalSupportedFeatures         0x0000432d   Thumb Code     0  rom1Sym.txt ABSOLUTE
    LL_EXT_SetMaxDtmTxPower                  0x00004331   Thumb Code     0  rom1Sym.txt ABSOLUTE
    LL_EXT_SetRxGain                         0x00004335   Thumb Code     0  rom1Sym.txt ABSOLUTE
    LL_EXT_SetRxGainCback                    0x00004339   Thumb Code     0  rom1Sym.txt ABSOLUTE
    LL_EXT_SetSCA                            0x00004353   Thumb Code     0  rom1Sym.txt ABSOLUTE
    LL_EXT_SetSlaveLatencyOverride           0x00004357   Thumb Code     0  rom1Sym.txt ABSOLUTE
    LL_EXT_SetTxPower                        0x0000435d   Thumb Code     0  rom1Sym.txt ABSOLUTE
    LL_EXT_SetTxPowerCback                   0x00004399   Thumb Code     0  rom1Sym.txt ABSOLUTE
    LL_EncChangeCback                        0x000043b9   Thumb Code     0  rom1Sym.txt ABSOLUTE
    LL_EncKeyRefreshCback                    0x0000443d   Thumb Code     0  rom1Sym.txt ABSOLUTE
    LL_EncLtkNegReply                        0x000044bd   Thumb Code     0  rom1Sym.txt ABSOLUTE
    LL_EncLtkReply                           0x00004511   Thumb Code     0  rom1Sym.txt ABSOLUTE
    LL_EncLtkReqCback                        0x0000456d   Thumb Code     0  rom1Sym.txt ABSOLUTE
    LL_Encrypt                               0x0000462d   Thumb Code     0  rom1Sym.txt ABSOLUTE
    LL_IRQHandler                            0x00004661   Thumb Code     0  rom1Sym.txt ABSOLUTE
    LL_Init                                  0x00004ad5   Thumb Code     0  rom1Sym.txt ABSOLUTE
    LL_NumEmptyWlEntries                     0x00004bdd   Thumb Code     0  rom1Sym.txt ABSOLUTE
    LL_ProcessEvent                          0x00004bf1   Thumb Code     0  rom1Sym.txt ABSOLUTE
    LL_PseudoRand                            0x00004cf5   Thumb Code     0  rom1Sym.txt ABSOLUTE
    LL_RX_bm_alloc                           0x00004cf9   Thumb Code     0  rom1Sym.txt ABSOLUTE
    LL_Rand                                  0x00004d11   Thumb Code     0  rom1Sym.txt ABSOLUTE
    LL_RandCback                             0x00004d6d   Thumb Code     0  rom1Sym.txt ABSOLUTE
    LL_ReadAdvChanTxPower                    0x00004d91   Thumb Code     0  rom1Sym.txt ABSOLUTE
    LL_ReadBDADDR                            0x00004dad   Thumb Code     0  rom1Sym.txt ABSOLUTE
    LL_ReadChanMap                           0x00004dd1   Thumb Code     0  rom1Sym.txt ABSOLUTE
    LL_ReadLocalSupportedFeatures            0x00004e09   Thumb Code     0  rom1Sym.txt ABSOLUTE
    LL_ReadLocalVersionInfo                  0x00004e25   Thumb Code     0  rom1Sym.txt ABSOLUTE
    LL_ReadRemoteUsedFeatures                0x00004e3d   Thumb Code     0  rom1Sym.txt ABSOLUTE
    LL_ReadRemoteUsedFeaturesCompleteCback   0x00004e7d   Thumb Code     0  rom1Sym.txt ABSOLUTE
    LL_ReadRemoteVersionInfo                 0x00004ef1   Thumb Code     0  rom1Sym.txt ABSOLUTE
    LL_ReadRemoteVersionInfoCback            0x00004f4d   Thumb Code     0  rom1Sym.txt ABSOLUTE
    LL_ReadRssi                              0x00004fc5   Thumb Code     0  rom1Sym.txt ABSOLUTE
    LL_ReadSupportedStates                   0x00004ff5   Thumb Code     0  rom1Sym.txt ABSOLUTE
    LL_ReadTxPowerLevel                      0x00005081   Thumb Code     0  rom1Sym.txt ABSOLUTE
    LL_ReadWlSize                            0x00005101   Thumb Code     0  rom1Sym.txt ABSOLUTE
    LL_RemoveWhiteListDevice                 0x00005121   Thumb Code     0  rom1Sym.txt ABSOLUTE
    LL_Reset                                 0x000051b5   Thumb Code     0  rom1Sym.txt ABSOLUTE
    LL_RxDataCompleteCback                   0x0000525d   Thumb Code     0  rom1Sym.txt ABSOLUTE
    LL_SetAdvControl                         0x00005311   Thumb Code     0  rom1Sym.txt ABSOLUTE
    LL_SetAdvData                            0x000053e5   Thumb Code     0  rom1Sym.txt ABSOLUTE
    LL_SetAdvParam                           0x00005441   Thumb Code     0  rom1Sym.txt ABSOLUTE
    LL_SetRandomAddress                      0x000056c9   Thumb Code     0  rom1Sym.txt ABSOLUTE
    LL_SetScanControl                        0x000056ed   Thumb Code     0  rom1Sym.txt ABSOLUTE
    LL_SetScanParam                          0x000056f1   Thumb Code     0  rom1Sym.txt ABSOLUTE
    LL_SetScanRspData                        0x000056f5   Thumb Code     0  rom1Sym.txt ABSOLUTE
    LL_SetTxPowerLevel                       0x00005739   Thumb Code     0  rom1Sym.txt ABSOLUTE
    LL_StartEncrypt                          0x00005765   Thumb Code     0  rom1Sym.txt ABSOLUTE
    LL_TX_bm_alloc                           0x00005851   Thumb Code     0  rom1Sym.txt ABSOLUTE
    LL_TxData                                0x00005871   Thumb Code     0  rom1Sym.txt ABSOLUTE
    LL_evt_schedule                          0x00005909   Thumb Code     0  rom1Sym.txt ABSOLUTE
    LL_set_default_conn_params               0x00005969   Thumb Code     0  rom1Sym.txt ABSOLUTE
    LL_slave_conn_event                      0x000059c1   Thumb Code     0  rom1Sym.txt ABSOLUTE
    NPI_GetMaxRxBufSize                      0x00005b59   Thumb Code     0  rom1Sym.txt ABSOLUTE
    NPI_GetMaxTxBufSize                      0x00005b5f   Thumb Code     0  rom1Sym.txt ABSOLUTE
    NPI_InitTransport                        0x00005b65   Thumb Code     0  rom1Sym.txt ABSOLUTE
    NPI_ReadTransport                        0x00005b89   Thumb Code     0  rom1Sym.txt ABSOLUTE
    NPI_RxBufLen                             0x00005bc5   Thumb Code     0  rom1Sym.txt ABSOLUTE
    NPI_WriteTransport                       0x00005bed   Thumb Code     0  rom1Sym.txt ABSOLUTE
    rom_ProgramPage64                        0x00005c19   Thumb Code     0  rom1Sym.txt ABSOLUTE
    rom_ReadFlash                            0x00005d55   Thumb Code     0  rom1Sym.txt ABSOLUTE
    SM_CalcRandomAddr                        0x00005d89   Thumb Code     0  rom1Sym.txt ABSOLUTE
    SM_Encrypt                               0x00005dd1   Thumb Code     0  rom1Sym.txt ABSOLUTE
    SM_GenerateAuthenSig                     0x00005e15   Thumb Code     0  rom1Sym.txt ABSOLUTE
    SM_Init                                  0x00005eb5   Thumb Code     0  rom1Sym.txt ABSOLUTE
    SM_InitiatorInit                         0x00005ef1   Thumb Code     0  rom1Sym.txt ABSOLUTE
    SM_NewRandKey                            0x00005f15   Thumb Code     0  rom1Sym.txt ABSOLUTE
    SM_PasskeyUpdate                         0x00005f51   Thumb Code     0  rom1Sym.txt ABSOLUTE
    SM_ProcessEvent                          0x00005ff1   Thumb Code     0  rom1Sym.txt ABSOLUTE
    SM_ResolveRandomAddrs                    0x00006079   Thumb Code     0  rom1Sym.txt ABSOLUTE
    SM_ResponderInit                         0x000060c9   Thumb Code     0  rom1Sym.txt ABSOLUTE
    SM_StartEncryption                       0x000060ed   Thumb Code     0  rom1Sym.txt ABSOLUTE
    SM_StartPairing                          0x00006149   Thumb Code     0  rom1Sym.txt ABSOLUTE
    SM_VerifyAuthenSig                       0x000061d1   Thumb Code     0  rom1Sym.txt ABSOLUTE
    WDT_init                                 0x000065bd   Thumb Code     0  rom1Sym.txt ABSOLUTE
    rom_WaitUs                               0x00006609   Thumb Code     0  rom1Sym.txt ABSOLUTE
    rom_WriteFlash                           0x00006631   Thumb Code     0  rom1Sym.txt ABSOLUTE
    __ARM_common_switch8                     0x0000664d   Thumb Code     0  rom1Sym.txt ABSOLUTE
    _itoa                                    0x00006685   Thumb Code     0  rom1Sym.txt ABSOLUTE
    _ltoa                                    0x000066cd   Thumb Code     0  rom1Sym.txt ABSOLUTE
    app_wakeup_process                       0x0000682d   Thumb Code     0  rom1Sym.txt ABSOLUTE
    ate_fun_test                             0x0000683d   Thumb Code     0  rom1Sym.txt ABSOLUTE
    ate_sleep_process                        0x00006ee1   Thumb Code     0  rom1Sym.txt ABSOLUTE
    ate_wakeup_process                       0x00006ef9   Thumb Code     0  rom1Sym.txt ABSOLUTE
    attSendMsg                               0x00006fe5   Thumb Code     0  rom1Sym.txt ABSOLUTE
    bit_to_byte                              0x00007061   Thumb Code     0  rom1Sym.txt ABSOLUTE
    ble_main                                 0x00007079   Thumb Code     0  rom1Sym.txt ABSOLUTE
    boot_by_uart                             0x00007129   Thumb Code     0  rom1Sym.txt ABSOLUTE
    boot_init                                0x00007285   Thumb Code     0  rom1Sym.txt ABSOLUTE
    boot_m0                                  0x00007319   Thumb Code     0  rom1Sym.txt ABSOLUTE
    byte_to_bit                              0x000073ad   Thumb Code     0  rom1Sym.txt ABSOLUTE
    calculateTimeDelta                       0x000073c5   Thumb Code     0  rom1Sym.txt ABSOLUTE
    calculate_whiten_seed                    0x000073e5   Thumb Code     0  rom1Sym.txt ABSOLUTE
    check_image_sum                          0x00007439   Thumb Code     0  rom1Sym.txt ABSOLUTE
    rom_check_internal_bus_busy              0x0000744d   Thumb Code     0  rom1Sym.txt ABSOLUTE
    clearTimerInt                            0x00007475   Thumb Code     0  rom1Sym.txt ABSOLUTE
    clear_WDT_INT                            0x00007479   Thumb Code     0  rom1Sym.txt ABSOLUTE
    clear_timer                              0x00007485   Thumb Code     0  rom1Sym.txt ABSOLUTE
    clear_timer1                             0x00007491   Thumb Code     0  rom1Sym.txt ABSOLUTE
    clear_timer2                             0x000074a1   Thumb Code     0  rom1Sym.txt ABSOLUTE
    clear_uart_buf                           0x000074b1   Thumb Code     0  rom1Sym.txt ABSOLUTE
    rom_close_spif                           0x000074d1   Thumb Code     0  rom1Sym.txt ABSOLUTE
    config_RTC                               0x000074dd   Thumb Code     0  rom1Sym.txt ABSOLUTE
    debug_print                              0x00007529   Thumb Code     0  rom1Sym.txt ABSOLUTE
    disableSleep                             0x00007539   Thumb Code     0  rom1Sym.txt ABSOLUTE
    disable_WDT                              0x00007545   Thumb Code     0  rom1Sym.txt ABSOLUTE
    rom_disable_spif_flash_write             0x00007551   Thumb Code     0  rom1Sym.txt ABSOLUTE
    enableSleep                              0x0000758d   Thumb Code     0  rom1Sym.txt ABSOLUTE
    enable_WDT                               0x00007599   Thumb Code     0  rom1Sym.txt ABSOLUTE
    enable_pin                               0x000075a9   Thumb Code     0  rom1Sym.txt ABSOLUTE
    rom_enable_spif_flash_write              0x000075cd   Thumb Code     0  rom1Sym.txt ABSOLUTE
    enterSleepProcess                        0x000075ed   Thumb Code     0  rom1Sym.txt ABSOLUTE
    enter_sleep_off_mode                     0x000076d5   Thumb Code     0  rom1Sym.txt ABSOLUTE
    rom_flash_block32_erase                  0x00007759   Thumb Code     0  rom1Sym.txt ABSOLUTE
    rom_flash_block64_erase                  0x0000779d   Thumb Code     0  rom1Sym.txt ABSOLUTE
    rom_flash_chip_erase                     0x000077e1   Thumb Code     0  rom1Sym.txt ABSOLUTE
    rom_flash_sector_erase                   0x000078b5   Thumb Code     0  rom1Sym.txt ABSOLUTE
    rom_fmux_control                         0x00007929   Thumb Code     0  rom1Sym.txt ABSOLUTE
    gapAddAddrAdj                            0x00007951   Thumb Code     0  rom1Sym.txt ABSOLUTE
    gapAddAdvToken                           0x00007985   Thumb Code     0  rom1Sym.txt ABSOLUTE
    gapBuildADTokens                         0x00007a69   Thumb Code     0  rom1Sym.txt ABSOLUTE
    gapCalcAdvTokenDataLen                   0x00007b41   Thumb Code     0  rom1Sym.txt ABSOLUTE
    gapCancelLinkReq                         0x00007b91   Thumb Code     0  rom1Sym.txt ABSOLUTE
    gapDeleteAdvToken                        0x00007c39   Thumb Code     0  rom1Sym.txt ABSOLUTE
    gapDetermineAddrType                     0x00007c75   Thumb Code     0  rom1Sym.txt ABSOLUTE
    gapFindADType                            0x00007c97   Thumb Code     0  rom1Sym.txt ABSOLUTE
    gapFindAdvToken                          0x00007ce5   Thumb Code     0  rom1Sym.txt ABSOLUTE
    gapFreeEstLink                           0x00007dcd   Thumb Code     0  rom1Sym.txt ABSOLUTE
    gapGetDevAddress                         0x00007e69   Thumb Code     0  rom1Sym.txt ABSOLUTE
    gapGetDevAddressMode                     0x00007e89   Thumb Code     0  rom1Sym.txt ABSOLUTE
    gapGetIRK                                0x00007e95   Thumb Code     0  rom1Sym.txt ABSOLUTE
    gapGetSRK                                0x00007ea1   Thumb Code     0  rom1Sym.txt ABSOLUTE
    gapGetSignCounter                        0x00007ead   Thumb Code     0  rom1Sym.txt ABSOLUTE
    gapIncSignCounter                        0x00007eb9   Thumb Code     0  rom1Sym.txt ABSOLUTE
    gapIsAdvertising                         0x00007ee1   Thumb Code     0  rom1Sym.txt ABSOLUTE
    gapIsScanning                            0x00007ef5   Thumb Code     0  rom1Sym.txt ABSOLUTE
    gapPairingCompleteCB                     0x00007f09   Thumb Code     0  rom1Sym.txt ABSOLUTE
    gapPasskeyNeededCB                       0x00008041   Thumb Code     0  rom1Sym.txt ABSOLUTE
    gapProcessConnUpdateCmdStatus            0x000083b5   Thumb Code     0  rom1Sym.txt ABSOLUTE
    gapProcessConnUpdateCompleteEvt          0x000083c9   Thumb Code     0  rom1Sym.txt ABSOLUTE
    gapProcessConnectionCompleteEvt          0x000083dd   Thumb Code     0  rom1Sym.txt ABSOLUTE
    gapProcessCreateLLConnCmdStatus          0x00008491   Thumb Code     0  rom1Sym.txt ABSOLUTE
    gapProcessDisconnectCompleteEvt          0x000084c5   Thumb Code     0  rom1Sym.txt ABSOLUTE
    gapProcessL2CAPSignalEvt                 0x000085e5   Thumb Code     0  rom1Sym.txt ABSOLUTE
    gapProcessNewAddr                        0x00008641   Thumb Code     0  rom1Sym.txt ABSOLUTE
    gapProcessRandomAddrComplete             0x000086f1   Thumb Code     0  rom1Sym.txt ABSOLUTE
    gapReadBD_ADDRStatus                     0x00008761   Thumb Code     0  rom1Sym.txt ABSOLUTE
    gapReadBufSizeCmdStatus                  0x000087a5   Thumb Code     0  rom1Sym.txt ABSOLUTE
    gapRegisterCentral                       0x000087e5   Thumb Code     0  rom1Sym.txt ABSOLUTE
    gapRegisterCentralConn                   0x000087f1   Thumb Code     0  rom1Sym.txt ABSOLUTE
    gapRegisterPeripheral                    0x000087fd   Thumb Code     0  rom1Sym.txt ABSOLUTE
    gapSendBondCompleteEvent                 0x0000883d   Thumb Code     0  rom1Sym.txt ABSOLUTE
    gapSendLinkUpdateEvent                   0x00008a41   Thumb Code     0  rom1Sym.txt ABSOLUTE
    gapSendPairingReqEvent                   0x00008ac9   Thumb Code     0  rom1Sym.txt ABSOLUTE
    gapSendSlaveSecurityReqEvent             0x00008bc1   Thumb Code     0  rom1Sym.txt ABSOLUTE
    gapSetAdvParams                          0x00008bfd   Thumb Code     0  rom1Sym.txt ABSOLUTE
    gapSetAdvParamsStatus                    0x00008c95   Thumb Code     0  rom1Sym.txt ABSOLUTE
    gapSetScanParamStatus                    0x00008cc1   Thumb Code     0  rom1Sym.txt ABSOLUTE
    gapTerminateConnComplete                 0x00008d1d   Thumb Code     0  rom1Sym.txt ABSOLUTE
    gapUpdateConnSignCounter                 0x00008d25   Thumb Code     0  rom1Sym.txt ABSOLUTE
    gapValidADType                           0x00008d4f   Thumb Code     0  rom1Sym.txt ABSOLUTE
    gapWriteAdvDataStatus                    0x00008d61   Thumb Code     0  rom1Sym.txt ABSOLUTE
    gapWriteAdvEnableStatus                  0x00008d69   Thumb Code     0  rom1Sym.txt ABSOLUTE
    gattNotifyEvent                          0x000090e1   Thumb Code     0  rom1Sym.txt ABSOLUTE
    gattRegisterClient                       0x00009a49   Thumb Code     0  rom1Sym.txt ABSOLUTE
    gattRegisterServer                       0x00009a55   Thumb Code     0  rom1Sym.txt ABSOLUTE
    gattStartTimer                           0x00009c83   Thumb Code     0  rom1Sym.txt ABSOLUTE
    gattStopTimer                            0x00009c93   Thumb Code     0  rom1Sym.txt ABSOLUTE
    getMcuPrecisionCount                     0x00009e61   Thumb Code     0  rom1Sym.txt ABSOLUTE
    getRxBufferFree                          0x00009e6d   Thumb Code     0  rom1Sym.txt ABSOLUTE
    getRxBufferSize                          0x00009e7d   Thumb Code     0  rom1Sym.txt ABSOLUTE
    getSleepMode                             0x00009e99   Thumb Code     0  rom1Sym.txt ABSOLUTE
    getTimerInt                              0x00009ea5   Thumb Code     0  rom1Sym.txt ABSOLUTE
    getTxBufferFree                          0x00009ead   Thumb Code     0  rom1Sym.txt ABSOLUTE
    getTxBufferSize                          0x00009ebd   Thumb Code     0  rom1Sym.txt ABSOLUTE
    get_WDT_INT_status                       0x00009ed9   Thumb Code     0  rom1Sym.txt ABSOLUTE
    get_WDT_current_count                    0x00009ee9   Thumb Code     0  rom1Sym.txt ABSOLUTE
    get_rx_read_ptr                          0x00009ef5   Thumb Code     0  rom1Sym.txt ABSOLUTE
    get_rx_write_ptr                         0x00009f01   Thumb Code     0  rom1Sym.txt ABSOLUTE
    get_sleep_flag                           0x00009f0d   Thumb Code     0  rom1Sym.txt ABSOLUTE
    get_timer3_count                         0x00009f19   Thumb Code     0  rom1Sym.txt ABSOLUTE
    get_tx_read_ptr                          0x00009f25   Thumb Code     0  rom1Sym.txt ABSOLUTE
    get_tx_write_ptr                         0x00009f31   Thumb Code     0  rom1Sym.txt ABSOLUTE
    gpio_init                                0x00009f3d   Thumb Code     0  rom1Sym.txt ABSOLUTE
    gpio_read                                0x00009f55   Thumb Code     0  rom1Sym.txt ABSOLUTE
    gpio_write                               0x00009f8d   Thumb Code     0  rom1Sym.txt ABSOLUTE
    rom_hal_Get_buff_data                    0x0000a081   Thumb Code     0  rom1Sym.txt ABSOLUTE
    rom_hal_read_current_time                0x0000ab69   Thumb Code     0  rom1Sym.txt ABSOLUTE
    rom_hal_uart_baud_switch                 0x0000aecd   Thumb Code     0  rom1Sym.txt ABSOLUTE
    rom_hal_uart_init                        0x0000af01   Thumb Code     0  rom1Sym.txt ABSOLUTE
    rom_hal_uart_rx                          0x0000af4d   Thumb Code     0  rom1Sym.txt ABSOLUTE
    rom_hal_uart_send_buff_fun               0x0000af61   Thumb Code     0  rom1Sym.txt ABSOLUTE
    rom_hal_uart_send_byte                   0x0000b005   Thumb Code     0  rom1Sym.txt ABSOLUTE
    rom_hal_uart_send_hex                    0x0000b01d   Thumb Code     0  rom1Sym.txt ABSOLUTE
    rom_hal_uart_send_int                    0x0000b045   Thumb Code     0  rom1Sym.txt ABSOLUTE
    rom_hal_uart_send_serial_byte            0x0000b057   Thumb Code     0  rom1Sym.txt ABSOLUTE
    rom_hal_uart_tx                          0x0000b071   Thumb Code     0  rom1Sym.txt ABSOLUTE
    hciInitEventMasks                        0x0000b689   Thumb Code     0  rom1Sym.txt ABSOLUTE
    rom_init_spif                            0x0000b6b1   Thumb Code     0  rom1Sym.txt ABSOLUTE
    io_wakeup_control                        0x0000b6cd   Thumb Code     0  rom1Sym.txt ABSOLUTE
    io_wakeup_pol_set                        0x0000b6f5   Thumb Code     0  rom1Sym.txt ABSOLUTE
    isSleepAllow                             0x0000b765   Thumb Code     0  rom1Sym.txt ABSOLUTE
    is_an_valid_number                       0x0000b771   Thumb Code     0  rom1Sym.txt ABSOLUTE
    jump_area_init                           0x0000b78d   Thumb Code     0  rom1Sym.txt ABSOLUTE
    l2capAllocChannel                        0x0000b7a5   Thumb Code     0  rom1Sym.txt ABSOLUTE
    l2capBuildEchoReq                        0x0000b813   Thumb Code     0  rom1Sym.txt ABSOLUTE
    l2capBuildEchoRsp                        0x0000b82d   Thumb Code     0  rom1Sym.txt ABSOLUTE
    l2capBuildInfoReq                        0x0000b847   Thumb Code     0  rom1Sym.txt ABSOLUTE
    l2capBuildParamUpdateReq                 0x0000b855   Thumb Code     0  rom1Sym.txt ABSOLUTE
    l2capEncapSendData                       0x0000b895   Thumb Code     0  rom1Sym.txt ABSOLUTE
    l2capFindLocalId                         0x0000b901   Thumb Code     0  rom1Sym.txt ABSOLUTE
    l2capFreeChannel                         0x0000b931   Thumb Code     0  rom1Sym.txt ABSOLUTE
    l2capHandleRxError                       0x0000b939   Thumb Code     0  rom1Sym.txt ABSOLUTE
    l2capNotifyData                          0x0000b967   Thumb Code     0  rom1Sym.txt ABSOLUTE
    l2capNotifySignal                        0x0000b9af   Thumb Code     0  rom1Sym.txt ABSOLUTE
    l2capParseCmdReject                      0x0000b9ff   Thumb Code     0  rom1Sym.txt ABSOLUTE
    l2capParseEchoRsp                        0x0000ba41   Thumb Code     0  rom1Sym.txt ABSOLUTE
    l2capParseInfoRsp                        0x0000ba71   Thumb Code     0  rom1Sym.txt ABSOLUTE
    l2capParsePacket                         0x0000bad9   Thumb Code     0  rom1Sym.txt ABSOLUTE
    l2capParseParamUpdateRsp                 0x0000bb35   Thumb Code     0  rom1Sym.txt ABSOLUTE
    l2capParseSignalHdr                      0x0000bb4b   Thumb Code     0  rom1Sym.txt ABSOLUTE
    l2capSendCmd                             0x0000bd2f   Thumb Code     0  rom1Sym.txt ABSOLUTE
    l2capSendReq                             0x0000bd95   Thumb Code     0  rom1Sym.txt ABSOLUTE
    l2capStopTimer                           0x0000be11   Thumb Code     0  rom1Sym.txt ABSOLUTE
    linkDB_Add                               0x0000be3d   Thumb Code     0  rom1Sym.txt ABSOLUTE
    linkDB_Authen                            0x0000be95   Thumb Code     0  rom1Sym.txt ABSOLUTE
    linkDB_Find                              0x0000bef9   Thumb Code     0  rom1Sym.txt ABSOLUTE
    linkDB_FindFirst                         0x0000bf21   Thumb Code     0  rom1Sym.txt ABSOLUTE
    linkDB_Init                              0x0000bf59   Thumb Code     0  rom1Sym.txt ABSOLUTE
    linkDB_NumActive                         0x0000bf95   Thumb Code     0  rom1Sym.txt ABSOLUTE
    linkDB_PerformFunc                       0x0000bfb9   Thumb Code     0  rom1Sym.txt ABSOLUTE
    linkDB_Register                          0x0000bfe9   Thumb Code     0  rom1Sym.txt ABSOLUTE
    linkDB_Remove                            0x0000c00d   Thumb Code     0  rom1Sym.txt ABSOLUTE
    linkDB_State                             0x0000c045   Thumb Code     0  rom1Sym.txt ABSOLUTE
    linkDB_Update                            0x0000c06d   Thumb Code     0  rom1Sym.txt ABSOLUTE
    ll24BitTimeCompare                       0x0000c08f   Thumb Code     0  rom1Sym.txt ABSOLUTE
    llAdjustForMissedEvent                   0x0000c0bd   Thumb Code     0  rom1Sym.txt ABSOLUTE
    llAllocConnId                            0x0000c169   Thumb Code     0  rom1Sym.txt ABSOLUTE
    llAtLeastTwoChans                        0x0000c16d   Thumb Code     0  rom1Sym.txt ABSOLUTE
    llCalcScaFactor                          0x0000c1b9   Thumb Code     0  rom1Sym.txt ABSOLUTE
    llCalcTimerDrift                         0x0000c1e1   Thumb Code     0  rom1Sym.txt ABSOLUTE
    llCheckForLstoDuringSL                   0x0000c225   Thumb Code     0  rom1Sym.txt ABSOLUTE
    llCheckWhiteListUsage                    0x0000c265   Thumb Code     0  rom1Sym.txt ABSOLUTE
    llConnCleanup                            0x0000c281   Thumb Code     0  rom1Sym.txt ABSOLUTE
    llConnTerminate                          0x0000c2b1   Thumb Code     0  rom1Sym.txt ABSOLUTE
    llConvertCtrlProcTimeoutToEvent          0x0000c2db   Thumb Code     0  rom1Sym.txt ABSOLUTE
    llConvertLstoToEvent                     0x0000c2f7   Thumb Code     0  rom1Sym.txt ABSOLUTE
    llDequeueCtrlPkt                         0x0000c31d   Thumb Code     0  rom1Sym.txt ABSOLUTE
    llDequeueDataQ                           0x0000c361   Thumb Code     0  rom1Sym.txt ABSOLUTE
    llEnqueueCtrlPkt                         0x0000c395   Thumb Code     0  rom1Sym.txt ABSOLUTE
    llEnqueueDataQ                           0x0000c3d5   Thumb Code     0  rom1Sym.txt ABSOLUTE
    llEventDelta                             0x0000c401   Thumb Code     0  rom1Sym.txt ABSOLUTE
    llEventInRange                           0x0000c417   Thumb Code     0  rom1Sym.txt ABSOLUTE
    llGetNextAdvChn                          0x0000c43d   Thumb Code     0  rom1Sym.txt ABSOLUTE
    llGetNextDataChan                        0x0000c499   Thumb Code     0  rom1Sym.txt ABSOLUTE
    llInitFeatureSet                         0x0000c4d9   Thumb Code     0  rom1Sym.txt ABSOLUTE
    llMemCopyDst                             0x0000c4f5   Thumb Code     0  rom1Sym.txt ABSOLUTE
    llMemCopySrc                             0x0000c50b   Thumb Code     0  rom1Sym.txt ABSOLUTE
    llPendingUpdateParam                     0x0000c525   Thumb Code     0  rom1Sym.txt ABSOLUTE
    llProcessChanMap                         0x0000c559   Thumb Code     0  rom1Sym.txt ABSOLUTE
    llProcessMasterControlPacket             0x0000c5c5   Thumb Code     0  rom1Sym.txt ABSOLUTE
    llProcessRxData                          0x0000c5c9   Thumb Code     0  rom1Sym.txt ABSOLUTE
    llProcessSlaveControlPacket              0x0000c70d   Thumb Code     0  rom1Sym.txt ABSOLUTE
    llProcessSlaveControlProcedures          0x0000c98d   Thumb Code     0  rom1Sym.txt ABSOLUTE
    llProcessTxData                          0x0000cd39   Thumb Code     0  rom1Sym.txt ABSOLUTE
    llReleaseAllConnId                       0x0000cdd1   Thumb Code     0  rom1Sym.txt ABSOLUTE
    llReleaseConnId                          0x0000cdd5   Thumb Code     0  rom1Sym.txt ABSOLUTE
    llReplaceCtrlPkt                         0x0000ce7d   Thumb Code     0  rom1Sym.txt ABSOLUTE
    llResetConnId                            0x0000ce9d   Thumb Code     0  rom1Sym.txt ABSOLUTE
    llResetRfCounters                        0x0000cf2d   Thumb Code     0  rom1Sym.txt ABSOLUTE
    llSetNextDataChan                        0x0000cf41   Thumb Code     0  rom1Sym.txt ABSOLUTE
    llSetupAdv                               0x0000cf91   Thumb Code     0  rom1Sym.txt ABSOLUTE
    llSetupDirectedAdvEvt                    0x0000cfe9   Thumb Code     0  rom1Sym.txt ABSOLUTE
    llSetupEncReq                            0x0000d199   Thumb Code     0  rom1Sym.txt ABSOLUTE
    llSetupEncRsp                            0x0000d201   Thumb Code     0  rom1Sym.txt ABSOLUTE
    llSetupFeatureSetReq                     0x0000d27d   Thumb Code     0  rom1Sym.txt ABSOLUTE
    llSetupFeatureSetRsp                     0x0000d2d9   Thumb Code     0  rom1Sym.txt ABSOLUTE
    llSetupInit                              0x0000d331   Thumb Code     0  rom1Sym.txt ABSOLUTE
    llSetupNextSlaveEvent                    0x0000d335   Thumb Code     0  rom1Sym.txt ABSOLUTE
    llSetupNonConnectableAdvEvt              0x0000d489   Thumb Code     0  rom1Sym.txt ABSOLUTE
    llSetupPauseEncReq                       0x0000d59d   Thumb Code     0  rom1Sym.txt ABSOLUTE
    llSetupPauseEncRsp                       0x0000d5e1   Thumb Code     0  rom1Sym.txt ABSOLUTE
    llSetupRejectInd                         0x0000d631   Thumb Code     0  rom1Sym.txt ABSOLUTE
    llSetupScan                              0x0000d659   Thumb Code     0  rom1Sym.txt ABSOLUTE
    llSetupScanInit                          0x0000d65b   Thumb Code     0  rom1Sym.txt ABSOLUTE
    llSetupScannableAdvEvt                   0x0000d65d   Thumb Code     0  rom1Sym.txt ABSOLUTE
    llSetupStartEncReq                       0x0000d771   Thumb Code     0  rom1Sym.txt ABSOLUTE
    llSetupStartEncRsp                       0x0000d799   Thumb Code     0  rom1Sym.txt ABSOLUTE
    llSetupTermInd                           0x0000d7dd   Thumb Code     0  rom1Sym.txt ABSOLUTE
    llSetupUndirectedAdvEvt                  0x0000d83d   Thumb Code     0  rom1Sym.txt ABSOLUTE
    llSetupUnknownRsp                        0x0000d94d   Thumb Code     0  rom1Sym.txt ABSOLUTE
    llSetupUpdateChanReq                     0x0000d999   Thumb Code     0  rom1Sym.txt ABSOLUTE
    llSetupUpdateParamReq                    0x0000da05   Thumb Code     0  rom1Sym.txt ABSOLUTE
    llSetupVersionIndReq                     0x0000da95   Thumb Code     0  rom1Sym.txt ABSOLUTE
    llSlaveEvt_TaskAbort                     0x0000db01   Thumb Code     0  rom1Sym.txt ABSOLUTE
    llSlaveEvt_TaskEndOk                     0x0000db1d   Thumb Code     0  rom1Sym.txt ABSOLUTE
    llTimeCompare                            0x0000dcad   Thumb Code     0  rom1Sym.txt ABSOLUTE
    llWriteTxData                            0x0000dcd1   Thumb Code     0  rom1Sym.txt ABSOLUTE
    ll_debug_output                          0x0000dd55   Thumb Code     0  rom1Sym.txt ABSOLUTE
    ll_generateTxBuffer                      0x0000dd6d   Thumb Code     0  rom1Sym.txt ABSOLUTE
    ll_hw_clr_irq                            0x0000dee1   Thumb Code     0  rom1Sym.txt ABSOLUTE
    ll_hw_config                             0x0000def1   Thumb Code     0  rom1Sym.txt ABSOLUTE
    ll_hw_get_anchor                         0x0000df6d   Thumb Code     0  rom1Sym.txt ABSOLUTE
    ll_hw_get_fsm_status                     0x0000df79   Thumb Code     0  rom1Sym.txt ABSOLUTE
    ll_hw_get_irq_status                     0x0000df89   Thumb Code     0  rom1Sym.txt ABSOLUTE
    ll_hw_get_last_ack                       0x0000df99   Thumb Code     0  rom1Sym.txt ABSOLUTE
    ll_hw_get_loop_cycle                     0x0000dfb5   Thumb Code     0  rom1Sym.txt ABSOLUTE
    ll_hw_get_loop_time                      0x0000dfc1   Thumb Code     0  rom1Sym.txt ABSOLUTE
    ll_hw_get_nAck                           0x0000dfcd   Thumb Code     0  rom1Sym.txt ABSOLUTE
    ll_hw_get_rfifo_depth                    0x0000dfdd   Thumb Code     0  rom1Sym.txt ABSOLUTE
    ll_hw_get_rfifo_info                     0x0000dff1   Thumb Code     0  rom1Sym.txt ABSOLUTE
    ll_hw_get_rxPkt_num                      0x0000e011   Thumb Code     0  rom1Sym.txt ABSOLUTE
    ll_hw_get_rxPkt_stats                    0x0000e01d   Thumb Code     0  rom1Sym.txt ABSOLUTE
    ll_hw_get_snNesn                         0x0000e035   Thumb Code     0  rom1Sym.txt ABSOLUTE
    ll_hw_get_tfifo_info                     0x0000e045   Thumb Code     0  rom1Sym.txt ABSOLUTE
    ll_hw_get_tfifo_wrptr                    0x0000e065   Thumb Code     0  rom1Sym.txt ABSOLUTE
    ll_hw_get_tr_mode                        0x0000e075   Thumb Code     0  rom1Sym.txt ABSOLUTE
    ll_hw_get_txAck                          0x0000e085   Thumb Code     0  rom1Sym.txt ABSOLUTE
    ll_hw_go                                 0x0000e091   Thumb Code     0  rom1Sym.txt ABSOLUTE
    ll_hw_ign_rfifo                          0x0000e0c1   Thumb Code     0  rom1Sym.txt ABSOLUTE
    ll_hw_process_RTO                        0x0000e0cd   Thumb Code     0  rom1Sym.txt ABSOLUTE
    ll_hw_read_rfifo                         0x0000e135   Thumb Code     0  rom1Sym.txt ABSOLUTE
    ll_hw_read_rfifo_zb                      0x0000e195   Thumb Code     0  rom1Sym.txt ABSOLUTE
    ll_hw_read_tfifo_packet                  0x0000e1f1   Thumb Code     0  rom1Sym.txt ABSOLUTE
    ll_hw_read_tfifo_rtlp                    0x0000e231   Thumb Code     0  rom1Sym.txt ABSOLUTE
    ll_hw_rst_rfifo                          0x0000e2e1   Thumb Code     0  rom1Sym.txt ABSOLUTE
    ll_hw_rst_tfifo                          0x0000e2f1   Thumb Code     0  rom1Sym.txt ABSOLUTE
    ll_hw_set_empty_head                     0x0000e2fd   Thumb Code     0  rom1Sym.txt ABSOLUTE
    ll_hw_set_irq                            0x0000e309   Thumb Code     0  rom1Sym.txt ABSOLUTE
    ll_hw_set_loop_nack_num                  0x0000e315   Thumb Code     0  rom1Sym.txt ABSOLUTE
    ll_hw_set_loop_timeout                   0x0000e321   Thumb Code     0  rom1Sym.txt ABSOLUTE
    ll_hw_set_rtlp                           0x0000e335   Thumb Code     0  rom1Sym.txt ABSOLUTE
    ll_hw_set_rtlp_1st                       0x0000e389   Thumb Code     0  rom1Sym.txt ABSOLUTE
    ll_hw_set_rtx                            0x0000e3d5   Thumb Code     0  rom1Sym.txt ABSOLUTE
    ll_hw_set_rx_timeout                     0x0000e3e9   Thumb Code     0  rom1Sym.txt ABSOLUTE
    ll_hw_set_rx_timeout_1st                 0x0000e3f5   Thumb Code     0  rom1Sym.txt ABSOLUTE
    ll_hw_set_rx_tx_interval                 0x0000e401   Thumb Code     0  rom1Sym.txt ABSOLUTE
    ll_hw_set_srx                            0x0000e415   Thumb Code     0  rom1Sym.txt ABSOLUTE
    ll_hw_set_stx                            0x0000e429   Thumb Code     0  rom1Sym.txt ABSOLUTE
    ll_hw_set_timing                         0x0000e43d   Thumb Code     0  rom1Sym.txt ABSOLUTE
    ll_hw_set_trlp                           0x0000e509   Thumb Code     0  rom1Sym.txt ABSOLUTE
    ll_hw_set_trx                            0x0000e555   Thumb Code     0  rom1Sym.txt ABSOLUTE
    ll_hw_set_trx_settle                     0x0000e569   Thumb Code     0  rom1Sym.txt ABSOLUTE
    ll_hw_set_tx_rx_interval                 0x0000e57d   Thumb Code     0  rom1Sym.txt ABSOLUTE
    ll_hw_set_tx_rx_release                  0x0000e591   Thumb Code     0  rom1Sym.txt ABSOLUTE
    ll_hw_trigger                            0x0000e5ad   Thumb Code     0  rom1Sym.txt ABSOLUTE
    ll_hw_update                             0x0000e5d1   Thumb Code     0  rom1Sym.txt ABSOLUTE
    ll_hw_update_rtlp_mode                   0x0000e635   Thumb Code     0  rom1Sym.txt ABSOLUTE
    ll_hw_update_trlp_mode                   0x0000e67d   Thumb Code     0  rom1Sym.txt ABSOLUTE
    ll_hw_write_tfifo                        0x0000e6cd   Thumb Code     0  rom1Sym.txt ABSOLUTE
    ll_read_rxfifo                           0x0000e749   Thumb Code     0  rom1Sym.txt ABSOLUTE
    ll_schedule_next_event                   0x0000e7e1   Thumb Code     0  rom1Sym.txt ABSOLUTE
    mask_timer_int                           0x0000e8b5   Thumb Code     0  rom1Sym.txt ABSOLUTE
    move_read_idx                            0x0000e8e9   Thumb Code     0  rom1Sym.txt ABSOLUTE
    move_to_slave_function                   0x0000e909   Thumb Code     0  rom1Sym.txt ABSOLUTE
    osalAddTimer                             0x0000eb2d   Thumb Code     0  rom1Sym.txt ABSOLUTE
    osalDeleteTimer                          0x0000eba5   Thumb Code     0  rom1Sym.txt ABSOLUTE
    osalFindTimer                            0x0000ebb1   Thumb Code     0  rom1Sym.txt ABSOLUTE
    osalTimeUpdate                           0x0000ebd1   Thumb Code     0  rom1Sym.txt ABSOLUTE
    osalTimeUpdate1                          0x0000ec35   Thumb Code     0  rom1Sym.txt ABSOLUTE
    osalTimerInit                            0x0000ec71   Thumb Code     0  rom1Sym.txt ABSOLUTE
    osalTimerUpdate                          0x0000ec7d   Thumb Code     0  rom1Sym.txt ABSOLUTE
    osal_CbTimerInit                         0x0000ed35   Thumb Code     0  rom1Sym.txt ABSOLUTE
    osal_CbTimerProcessEvent                 0x0000ed55   Thumb Code     0  rom1Sym.txt ABSOLUTE
    osal_CbTimerStart                        0x0000edb5   Thumb Code     0  rom1Sym.txt ABSOLUTE
    osal_CbTimerStop                         0x0000ee1d   Thumb Code     0  rom1Sym.txt ABSOLUTE
    osal_CbTimerUpdate                       0x0000ee5d   Thumb Code     0  rom1Sym.txt ABSOLUTE
    osal_ConvertUTCSecs                      0x0000eead   Thumb Code     0  rom1Sym.txt ABSOLUTE
    osal_ConvertUTCTime                      0x0000ef51   Thumb Code     0  rom1Sym.txt ABSOLUTE
    osal_GetSystemClock                      0x0000f055   Thumb Code     0  rom1Sym.txt ABSOLUTE
    osal_bm_adjust_header                    0x0000f061   Thumb Code     0  rom1Sym.txt ABSOLUTE
    osal_bm_adjust_tail                      0x0000f08b   Thumb Code     0  rom1Sym.txt ABSOLUTE
    osal_bm_alloc                            0x0000f0b9   Thumb Code     0  rom1Sym.txt ABSOLUTE
    osal_bm_free                             0x0000f0f1   Thumb Code     0  rom1Sym.txt ABSOLUTE
    osal_buffer_uint24                       0x0000f141   Thumb Code     0  rom1Sym.txt ABSOLUTE
    osal_buffer_uint32                       0x0000f14f   Thumb Code     0  rom1Sym.txt ABSOLUTE
    osal_build_uint16                        0x0000f161   Thumb Code     0  rom1Sym.txt ABSOLUTE
    osal_build_uint32                        0x0000f16d   Thumb Code     0  rom1Sym.txt ABSOLUTE
    osal_clear_event                         0x0000f1a9   Thumb Code     0  rom1Sym.txt ABSOLUTE
    osal_getClock                            0x0000f1e5   Thumb Code     0  rom1Sym.txt ABSOLUTE
    osal_get_timeoutEx                       0x0000f1f1   Thumb Code     0  rom1Sym.txt ABSOLUTE
    osal_init_system                         0x0000f215   Thumb Code     0  rom1Sym.txt ABSOLUTE
    osal_int_disable                         0x0000f245   Thumb Code     0  rom1Sym.txt ABSOLUTE
    osal_int_enable                          0x0000f253   Thumb Code     0  rom1Sym.txt ABSOLUTE
    osal_isbufset                            0x0000f261   Thumb Code     0  rom1Sym.txt ABSOLUTE
    osal_isr_register                        0x0000f285   Thumb Code     0  rom1Sym.txt ABSOLUTE
    osal_mem_alloc                           0x0000f289   Thumb Code     0  rom1Sym.txt ABSOLUTE
    osal_mem_free                            0x0000f359   Thumb Code     0  rom1Sym.txt ABSOLUTE
    osal_mem_init                            0x0000f389   Thumb Code     0  rom1Sym.txt ABSOLUTE
    osal_mem_kick                            0x0000f3c1   Thumb Code     0  rom1Sym.txt ABSOLUTE
    osal_memcmp                              0x0000f3f1   Thumb Code     0  rom1Sym.txt ABSOLUTE
    osal_memcpy                              0x0000f40f   Thumb Code     0  rom1Sym.txt ABSOLUTE
    osal_memdup                              0x0000f421   Thumb Code     0  rom1Sym.txt ABSOLUTE
    osal_memset                              0x0000f441   Thumb Code     0  rom1Sym.txt ABSOLUTE
    osal_msg_allocate                        0x0000f449   Thumb Code     0  rom1Sym.txt ABSOLUTE
    osal_msg_deallocate                      0x0000f475   Thumb Code     0  rom1Sym.txt ABSOLUTE
    osal_msg_dequeue                         0x0000f499   Thumb Code     0  rom1Sym.txt ABSOLUTE
    osal_msg_enqueue                         0x0000f4cd   Thumb Code     0  rom1Sym.txt ABSOLUTE
    osal_msg_enqueue_max                     0x0000f505   Thumb Code     0  rom1Sym.txt ABSOLUTE
    osal_msg_extract                         0x0000f5bd   Thumb Code     0  rom1Sym.txt ABSOLUTE
    osal_msg_find                            0x0000f5f5   Thumb Code     0  rom1Sym.txt ABSOLUTE
    osal_msg_push                            0x0000f631   Thumb Code     0  rom1Sym.txt ABSOLUTE
    osal_msg_push_front                      0x0000f651   Thumb Code     0  rom1Sym.txt ABSOLUTE
    osal_msg_receive                         0x0000f65d   Thumb Code     0  rom1Sym.txt ABSOLUTE
    osal_msg_send                            0x0000f6c9   Thumb Code     0  rom1Sym.txt ABSOLUTE
    osal_next_timeout                        0x0000f6d5   Thumb Code     0  rom1Sym.txt ABSOLUTE
    osal_pwrmgr_device                       0x0000f6fd   Thumb Code     0  rom1Sym.txt ABSOLUTE
    osal_pwrmgr_init                         0x0000f709   Thumb Code     0  rom1Sym.txt ABSOLUTE
    osal_pwrmgr_powerconserve                0x0000f719   Thumb Code     0  rom1Sym.txt ABSOLUTE
    osal_pwrmgr_task_state                   0x0000f839   Thumb Code     0  rom1Sym.txt ABSOLUTE
    osal_rand                                0x0000f869   Thumb Code     0  rom1Sym.txt ABSOLUTE
    osal_revmemcpy                           0x0000f885   Thumb Code     0  rom1Sym.txt ABSOLUTE
    osal_run_system                          0x0000f89d   Thumb Code     0  rom1Sym.txt ABSOLUTE
    osal_self                                0x0000f941   Thumb Code     0  rom1Sym.txt ABSOLUTE
    osal_setClock                            0x0000f94d   Thumb Code     0  rom1Sym.txt ABSOLUTE
    osal_set_event                           0x0000f959   Thumb Code     0  rom1Sym.txt ABSOLUTE
    osal_start_reload_timer                  0x0000f995   Thumb Code     0  rom1Sym.txt ABSOLUTE
    osal_start_system                        0x0000f9c5   Thumb Code     0  rom1Sym.txt ABSOLUTE
    osal_start_timerEx                       0x0000f9cd   Thumb Code     0  rom1Sym.txt ABSOLUTE
    osal_stop_timerEx                        0x0000f9f1   Thumb Code     0  rom1Sym.txt ABSOLUTE
    osal_strlen                              0x0000fa21   Thumb Code     0  rom1Sym.txt ABSOLUTE
    osal_timer_num_active                    0x0000fa29   Thumb Code     0  rom1Sym.txt ABSOLUTE
    pad_ds_control                           0x0000fa55   Thumb Code     0  rom1Sym.txt ABSOLUTE
    pad_pe_control                           0x0000fa7d   Thumb Code     0  rom1Sym.txt ABSOLUTE
    pinmap                                   0x0000facb   Thumb Code     0  rom1Sym.txt ABSOLUTE
    program_bin                              0x0000fadd   Thumb Code     0  rom1Sym.txt ABSOLUTE
    program_flags                            0x0000fb71   Thumb Code     0  rom1Sym.txt ABSOLUTE
    read_LL_remainder_time                   0x0000fbdd   Thumb Code     0  rom1Sym.txt ABSOLUTE
    read_current_fine_time                   0x0000fbe9   Thumb Code     0  rom1Sym.txt ABSOLUTE
    rom_read_deviceID                        0x0000fc11   Thumb Code     0  rom1Sym.txt ABSOLUTE
    rom_read_status_register                 0x0000fc45   Thumb Code     0  rom1Sym.txt ABSOLUTE
    receive_cmd_params                       0x0000fc6d   Thumb Code     0  rom1Sym.txt ABSOLUTE
    receive_cmd_params_dec                   0x0000fd39   Thumb Code     0  rom1Sym.txt ABSOLUTE
    receive_command                          0x0000fe05   Thumb Code     0  rom1Sym.txt ABSOLUTE
    receive_image_data                       0x0000fed9   Thumb Code     0  rom1Sym.txt ABSOLUTE
    rom_release_flash_deep_sleep             0x0000ff6d   Thumb Code     0  rom1Sym.txt ABSOLUTE
    reset_CmdandParam                        0x0000ffb5   Thumb Code     0  rom1Sym.txt ABSOLUTE
    reset_Param                              0x0000ffc1   Thumb Code     0  rom1Sym.txt ABSOLUTE
    reset_burn_buf                           0x0000ffdd   Thumb Code     0  rom1Sym.txt ABSOLUTE
    reset_cmd                                0x0000fff9   Thumb Code     0  rom1Sym.txt ABSOLUTE
    reset_conn_buf                           0x00010015   Thumb Code     0  rom1Sym.txt ABSOLUTE
    rf_init                                  0x000100d1   Thumb Code     0  rom1Sym.txt ABSOLUTE
    rom_board_init                           0x00010979   Thumb Code     0  rom1Sym.txt ABSOLUTE
    sendEstLinkEvent                         0x00010ab5   Thumb Code     0  rom1Sym.txt ABSOLUTE
    setSleepMode                             0x00010b3d   Thumb Code     0  rom1Sym.txt ABSOLUTE
    set_WDT_rpl                              0x00010b49   Thumb Code     0  rom1Sym.txt ABSOLUTE
    set_access_address                       0x00010b5d   Thumb Code     0  rom1Sym.txt ABSOLUTE
    set_channel                              0x00010b69   Thumb Code     0  rom1Sym.txt ABSOLUTE
    set_crc_seed                             0x00010ba9   Thumb Code     0  rom1Sym.txt ABSOLUTE
    rom_set_flash_deep_sleep                 0x00010bc1   Thumb Code     0  rom1Sym.txt ABSOLUTE
    set_fullmux_pin_function                 0x00010be1   Thumb Code     0  rom1Sym.txt ABSOLUTE
    set_gpio_pull_down_ate                   0x00010cdd   Thumb Code     0  rom1Sym.txt ABSOLUTE
    set_gpio_pull_up_ate                     0x00010cf9   Thumb Code     0  rom1Sym.txt ABSOLUTE
    set_int                                  0x00010d15   Thumb Code     0  rom1Sym.txt ABSOLUTE
    set_loadtimer                            0x00010d21   Thumb Code     0  rom1Sym.txt ABSOLUTE
    set_max_length                           0x00010d3d   Thumb Code     0  rom1Sym.txt ABSOLUTE
    rom_hal_gpio_pull_set                    0x00010d51   Thumb Code     0  rom1Sym.txt ABSOLUTE
    set_sleep_flag                           0x00010d89   Thumb Code     0  rom1Sym.txt ABSOLUTE
    set_timer                                0x00010db9   Thumb Code     0  rom1Sym.txt ABSOLUTE
    set_timer1                               0x00010df5   Thumb Code     0  rom1Sym.txt ABSOLUTE
    set_timer2                               0x00010e05   Thumb Code     0  rom1Sym.txt ABSOLUTE
    set_timer3                               0x00010e15   Thumb Code     0  rom1Sym.txt ABSOLUTE
    set_whiten_seed                          0x00010e25   Thumb Code     0  rom1Sym.txt ABSOLUTE
    smAuthReqToUint8                         0x00010e91   Thumb Code     0  rom1Sym.txt ABSOLUTE
    smDetermineKeySize                       0x00010ed5   Thumb Code     0  rom1Sym.txt ABSOLUTE
    smEncLTK                                 0x00010efd   Thumb Code     0  rom1Sym.txt ABSOLUTE
    smEndPairing                             0x00010f51   Thumb Code     0  rom1Sym.txt ABSOLUTE
    smGenerateConfirm                        0x00010fd9   Thumb Code     0  rom1Sym.txt ABSOLUTE
    smGeneratePairingReqRsp                  0x00011005   Thumb Code     0  rom1Sym.txt ABSOLUTE
    smGenerateRandBuf                        0x0001104d   Thumb Code     0  rom1Sym.txt ABSOLUTE
    smGenerateRandMsg                        0x00011075   Thumb Code     0  rom1Sym.txt ABSOLUTE
    smInProcess                              0x000110a1   Thumb Code     0  rom1Sym.txt ABSOLUTE
    smLinkCheck                              0x0001127d   Thumb Code     0  rom1Sym.txt ABSOLUTE
    smNextPairingState                       0x0001129d   Thumb Code     0  rom1Sym.txt ABSOLUTE
    smPairingSendEncInfo                     0x000112e1   Thumb Code     0  rom1Sym.txt ABSOLUTE
    smPairingSendIdentityAddrInfo            0x000112f5   Thumb Code     0  rom1Sym.txt ABSOLUTE
    smPairingSendIdentityInfo                0x0001131d   Thumb Code     0  rom1Sym.txt ABSOLUTE
    smPairingSendMasterID                    0x00011331   Thumb Code     0  rom1Sym.txt ABSOLUTE
    smPairingSendSingingInfo                 0x0001135d   Thumb Code     0  rom1Sym.txt ABSOLUTE
    smProcessDataMsg                         0x00011371   Thumb Code     0  rom1Sym.txt ABSOLUTE
    smProcessEncryptChange                   0x0001141d   Thumb Code     0  rom1Sym.txt ABSOLUTE
    smProcessPairingReq                      0x00011595   Thumb Code     0  rom1Sym.txt ABSOLUTE
    smProcessRandComplete                    0x000115e9   Thumb Code     0  rom1Sym.txt ABSOLUTE
    smRegisterInitiator                      0x00011645   Thumb Code     0  rom1Sym.txt ABSOLUTE
    smRegisterResponder                      0x00011651   Thumb Code     0  rom1Sym.txt ABSOLUTE
    smSavePairInfo                           0x000119c5   Thumb Code     0  rom1Sym.txt ABSOLUTE
    smSendFailAndEnd                         0x00011b11   Thumb Code     0  rom1Sym.txt ABSOLUTE
    smSendSMMsg                              0x00011b75   Thumb Code     0  rom1Sym.txt ABSOLUTE
    smStartEncryption                        0x00011bfd   Thumb Code     0  rom1Sym.txt ABSOLUTE
    smStartRspTimer                          0x00011c1d   Thumb Code     0  rom1Sym.txt ABSOLUTE
    smStopRspTimer                           0x00011c3d   Thumb Code     0  rom1Sym.txt ABSOLUTE
    smTimedOut                               0x00011c51   Thumb Code     0  rom1Sym.txt ABSOLUTE
    smUint8ToAuthReq                         0x00011c5b   Thumb Code     0  rom1Sym.txt ABSOLUTE
    sm_ah                                    0x00011db5   Thumb Code     0  rom1Sym.txt ABSOLUTE
    sm_c1                                    0x00011df9   Thumb Code     0  rom1Sym.txt ABSOLUTE
    sm_c1new                                 0x00011e91   Thumb Code     0  rom1Sym.txt ABSOLUTE
    sm_d1                                    0x00011f55   Thumb Code     0  rom1Sym.txt ABSOLUTE
    sm_dm                                    0x00011f93   Thumb Code     0  rom1Sym.txt ABSOLUTE
    sm_s1                                    0x00011fd1   Thumb Code     0  rom1Sym.txt ABSOLUTE
    smpBuildEncInfo                          0x0001202b   Thumb Code     0  rom1Sym.txt ABSOLUTE
    smpBuildIdentityAddrInfo                 0x0001204d   Thumb Code     0  rom1Sym.txt ABSOLUTE
    smpBuildIdentityInfo                     0x00012075   Thumb Code     0  rom1Sym.txt ABSOLUTE
    smpBuildMasterID                         0x00012097   Thumb Code     0  rom1Sym.txt ABSOLUTE
    smpBuildPairingConfirm                   0x000120c5   Thumb Code     0  rom1Sym.txt ABSOLUTE
    smpBuildPairingFailed                    0x000120e7   Thumb Code     0  rom1Sym.txt ABSOLUTE
    smpBuildPairingRandom                    0x000120ff   Thumb Code     0  rom1Sym.txt ABSOLUTE
    smpBuildPairingReq                       0x00012121   Thumb Code     0  rom1Sym.txt ABSOLUTE
    smpBuildPairingReqRsp                    0x0001212f   Thumb Code     0  rom1Sym.txt ABSOLUTE
    smpBuildPairingRsp                       0x0001219b   Thumb Code     0  rom1Sym.txt ABSOLUTE
    smpBuildSecurityReq                      0x000121a9   Thumb Code     0  rom1Sym.txt ABSOLUTE
    smpBuildSigningInfo                      0x000121c7   Thumb Code     0  rom1Sym.txt ABSOLUTE
    smpParseEncInfo                          0x00012581   Thumb Code     0  rom1Sym.txt ABSOLUTE
    smpParseIdentityAddrInfo                 0x0001259f   Thumb Code     0  rom1Sym.txt ABSOLUTE
    smpParseIdentityInfo                     0x000125c3   Thumb Code     0  rom1Sym.txt ABSOLUTE
    smpParseMasterID                         0x000125e1   Thumb Code     0  rom1Sym.txt ABSOLUTE
    smpParsePairingConfirm                   0x0001260b   Thumb Code     0  rom1Sym.txt ABSOLUTE
    smpParsePairingFailed                    0x00012629   Thumb Code     0  rom1Sym.txt ABSOLUTE
    smpParsePairingRandom                    0x00012649   Thumb Code     0  rom1Sym.txt ABSOLUTE
    smpParsePairingReq                       0x00012667   Thumb Code     0  rom1Sym.txt ABSOLUTE
    smpParseSecurityReq                      0x00012721   Thumb Code     0  rom1Sym.txt ABSOLUTE
    smpParseSigningInfo                      0x0001273d   Thumb Code     0  rom1Sym.txt ABSOLUTE
    smpResponderProcessPairingReq            0x00012a2d   Thumb Code     0  rom1Sym.txt ABSOLUTE
    sram_ret_patch                           0x00012b25   Thumb Code     0  rom1Sym.txt ABSOLUTE
    update_rx_read_ptr                       0x00012b55   Thumb Code     0  rom1Sym.txt ABSOLUTE
    update_rx_write_ptr                      0x00012b7d   Thumb Code     0  rom1Sym.txt ABSOLUTE
    update_tx_read_ptr                       0x00012b99   Thumb Code     0  rom1Sym.txt ABSOLUTE
    update_tx_write_ptr                      0x00012bc1   Thumb Code     0  rom1Sym.txt ABSOLUTE
    wakeupProcess                            0x00012c05   Thumb Code     0  rom1Sym.txt ABSOLUTE
    wakeup_init                              0x00012ce5   Thumb Code     0  rom1Sym.txt ABSOLUTE
    write_image_to_flash                     0x00012df9   Thumb Code     0  rom1Sym.txt ABSOLUTE
    rom_write_status_register                0x00012e85   Thumb Code     0  rom1Sym.txt ABSOLUTE
    zigbee_crc16_gen                         0x00012ebf   Thumb Code     0  rom1Sym.txt ABSOLUTE
    btBaseUUID                               0x00012f64   Data           0  rom1Sym.txt ABSOLUTE
    gapServiceUUID                           0x00012fd4   Data           0  rom1Sym.txt ABSOLUTE
    gattServiceUUID                          0x00012fd6   Data           0  rom1Sym.txt ABSOLUTE
    primaryServiceUUID                       0x00012fd8   Data           0  rom1Sym.txt ABSOLUTE
    secondaryServiceUUID                     0x00012fda   Data           0  rom1Sym.txt ABSOLUTE
    includeUUID                              0x00012fdc   Data           0  rom1Sym.txt ABSOLUTE
    characterUUID                            0x00012fde   Data           0  rom1Sym.txt ABSOLUTE
    charExtPropsUUID                         0x00012fe0   Data           0  rom1Sym.txt ABSOLUTE
    charUserDescUUID                         0x00012fe2   Data           0  rom1Sym.txt ABSOLUTE
    clientCharCfgUUID                        0x00012fe4   Data           0  rom1Sym.txt ABSOLUTE
    servCharCfgUUID                          0x00012fe6   Data           0  rom1Sym.txt ABSOLUTE
    charFormatUUID                           0x00012fe8   Data           0  rom1Sym.txt ABSOLUTE
    charAggFormatUUID                        0x00012fea   Data           0  rom1Sym.txt ABSOLUTE
    deviceNameUUID                           0x00012fec   Data           0  rom1Sym.txt ABSOLUTE
    appearanceUUID                           0x00012fee   Data           0  rom1Sym.txt ABSOLUTE
    periPrivacyFlagUUID                      0x00012ff0   Data           0  rom1Sym.txt ABSOLUTE
    reconnectAddrUUID                        0x00012ff2   Data           0  rom1Sym.txt ABSOLUTE
    periConnParamUUID                        0x00012ff4   Data           0  rom1Sym.txt ABSOLUTE
    serviceChangedUUID                       0x00012ff6   Data           0  rom1Sym.txt ABSOLUTE
    validRangeUUID                           0x00012ff8   Data           0  rom1Sym.txt ABSOLUTE
    extReportRefUUID                         0x00012ffa   Data           0  rom1Sym.txt ABSOLUTE
    reportRefUUID                            0x00012ffc   Data           0  rom1Sym.txt ABSOLUTE
    supportedCmdsTable                       0x00013027   Data           0  rom1Sym.txt ABSOLUTE
    hciCmdTable                              0x00013068   Data           0  rom1Sym.txt ABSOLUTE
    SCA                                      0x00013070   Data           0  rom1Sym.txt ABSOLUTE
    zeroBlock                                0x00013080   Data           0  rom1Sym.txt ABSOLUTE
    jump_table_base                          0x1fff0800   Data        1024  jump_table.o(jump_table_mem_area)
    global_config                            0x1fff0c00   Data        1024  jump_table.o(global_config_area)
    hclk                                     0x1fff1010   Data           0  rom1Sym.txt ABSOLUTE
    pclk                                     0x1fff1014   Data           0  rom1Sym.txt ABSOLUTE
    hclk_per_us                              0x1fff1020   Data           0  rom1Sym.txt ABSOLUTE
    hclk_per_us_shift                        0x1fff1024   Data           0  rom1Sym.txt ABSOLUTE
    current_base_time                        0x1fff102c   Data           0  rom1Sym.txt ABSOLUTE
    osal_sys_tick                            0x1fff1030   Data           0  rom1Sym.txt ABSOLUTE
    current_fine_time                        0x1fff1034   Data           0  rom1Sym.txt ABSOLUTE
    rom_MID                                  0x1fff104c   Data           0  rom1Sym.txt ABSOLUTE
    rom_JID8                                 0x1fff104d   Data           0  rom1Sym.txt ABSOLUTE
    rom_JID0                                 0x1fff104e   Data           0  rom1Sym.txt ABSOLUTE
    Uart_status                              0x1fff1050   Data           0  rom1Sym.txt ABSOLUTE
    rx_overrun_flag                          0x1fff1051   Data           0  rom1Sym.txt ABSOLUTE
    uart_rx_wIdx                             0x1fff1054   Data           0  rom1Sym.txt ABSOLUTE
    uart_rx_rIdx                             0x1fff1058   Data           0  rom1Sym.txt ABSOLUTE
    uart_tx_wIdx                             0x1fff105c   Data           0  rom1Sym.txt ABSOLUTE
    uart_tx_rIdx                             0x1fff1060   Data           0  rom1Sym.txt ABSOLUTE
    g_uart_baud                              0x1fff1064   Data           0  rom1Sym.txt ABSOLUTE
    cmdValid                                 0x1fff1068   Data           0  rom1Sym.txt ABSOLUTE
    cmdParamValid                            0x1fff1069   Data           0  rom1Sym.txt ABSOLUTE
    receive_timeout_flag                     0x1fff106a   Data           0  rom1Sym.txt ABSOLUTE
    r_idx                                    0x1fff1074   Data           0  rom1Sym.txt ABSOLUTE
    ImageCount                               0x1fff1078   Data           0  rom1Sym.txt ABSOLUTE
    flash_addr                               0x1fff107c   Data           0  rom1Sym.txt ABSOLUTE
    image_size                               0x1fff1080   Data           0  rom1Sym.txt ABSOLUTE
    run_addr                                 0x1fff1084   Data           0  rom1Sym.txt ABSOLUTE
    time_begin                               0x1fff1088   Data           0  rom1Sym.txt ABSOLUTE
    time_end                                 0x1fff108c   Data           0  rom1Sym.txt ABSOLUTE
    adc_wIdx                                 0x1fff1090   Data           0  rom1Sym.txt ABSOLUTE
    adc_int_source                           0x1fff1092   Data           0  rom1Sym.txt ABSOLUTE
    baseTaskID                               0x1fff1098   Data           0  rom1Sym.txt ABSOLUTE
    OSAL_timeSeconds                         0x1fff10a4   Data           0  rom1Sym.txt ABSOLUTE
    ll_remain_time                           0x1fff10b0   Data           0  rom1Sym.txt ABSOLUTE
    pwrmgr_attribute                         0x1fff10b4   Data           0  rom1Sym.txt ABSOLUTE
    timerHead                                0x1fff10bc   Data           0  rom1Sym.txt ABSOLUTE
    osal_qHead                               0x1fff10c8   Data           0  rom1Sym.txt ABSOLUTE
    gapAppTaskID                             0x1fff10e4   Data           0  rom1Sym.txt ABSOLUTE
    gapProfileRole                           0x1fff10e5   Data           0  rom1Sym.txt ABSOLUTE
    gapDeviceAddrMode                        0x1fff10e6   Data           0  rom1Sym.txt ABSOLUTE
    gapAutoAdvPrivateAddrChange              0x1fff10e7   Data           0  rom1Sym.txt ABSOLUTE
    gapPrivateAddrChangeTimeout              0x1fff10e8   Data           0  rom1Sym.txt ABSOLUTE
    pGapDiscReq                              0x1fff1140   Data           0  rom1Sym.txt ABSOLUTE
    pGapAdvertState                          0x1fff1144   Data           0  rom1Sym.txt ABSOLUTE
    pEstLink                                 0x1fff114c   Data           0  rom1Sym.txt ABSOLUTE
    pAuthLink                                0x1fff1150   Data           0  rom1Sym.txt ABSOLUTE
    pfnCentralConnCBs                        0x1fff1154   Data           0  rom1Sym.txt ABSOLUTE
    gapUnwantedTaskID                        0x1fff1174   Data           0  rom1Sym.txt ABSOLUTE
    gapTaskID                                0x1fff1175   Data           0  rom1Sym.txt ABSOLUTE
    pfnPeripheralCBs                         0x1fff1178   Data           0  rom1Sym.txt ABSOLUTE
    indTaskId                                0x1fff1180   Data           0  rom1Sym.txt ABSOLUTE
    reqTaskId                                0x1fff1184   Data           0  rom1Sym.txt ABSOLUTE
    serverInfoTbl                            0x1fff118c   Data           0  rom1Sym.txt ABSOLUTE
    gattTaskID                               0x1fff1194   Data           0  rom1Sym.txt ABSOLUTE
    l2capTaskID                              0x1fff11a1   Data           0  rom1Sym.txt ABSOLUTE
    pPairingParams                           0x1fff11b4   Data           0  rom1Sym.txt ABSOLUTE
    pfnResponderCBs                          0x1fff11b8   Data           0  rom1Sym.txt ABSOLUTE
    smTaskID                                 0x1fff11cc   Data           0  rom1Sym.txt ABSOLUTE
    hciPTMenabled                            0x1fff11ce   Data           0  rom1Sym.txt ABSOLUTE
    ctrlToHostEnable                         0x1fff11cf   Data           0  rom1Sym.txt ABSOLUTE
    numHostBufs                              0x1fff11d0   Data           0  rom1Sym.txt ABSOLUTE
    hciCtrlCmdToken                          0x1fff11d2   Data           0  rom1Sym.txt ABSOLUTE
    bleEvtMask                               0x1fff11d3   Data           0  rom1Sym.txt ABSOLUTE
    pHciEvtMask                              0x1fff11d4   Data           0  rom1Sym.txt ABSOLUTE
    hciTaskID                                0x1fff11dc   Data           0  rom1Sym.txt ABSOLUTE
    hciTestTaskID                            0x1fff11dd   Data           0  rom1Sym.txt ABSOLUTE
    hciGapTaskID                             0x1fff11de   Data           0  rom1Sym.txt ABSOLUTE
    hciL2capTaskID                           0x1fff11df   Data           0  rom1Sym.txt ABSOLUTE
    hciSmpTaskID                             0x1fff11e0   Data           0  rom1Sym.txt ABSOLUTE
    hciExtTaskID                             0x1fff11e1   Data           0  rom1Sym.txt ABSOLUTE
    LL_TaskID                                0x1fff11e4   Data           0  rom1Sym.txt ABSOLUTE
    llState                                  0x1fff11e5   Data           0  rom1Sym.txt ABSOLUTE
    numTxDataBufs                            0x1fff11e6   Data           0  rom1Sym.txt ABSOLUTE
    numComplPkts                             0x1fff11e7   Data           0  rom1Sym.txt ABSOLUTE
    numComplPktsLimit                        0x1fff11e8   Data           0  rom1Sym.txt ABSOLUTE
    fastTxRespTime                           0x1fff11e9   Data           0  rom1Sym.txt ABSOLUTE
    g_llWlDeviceNum                          0x1fff11ea   Data           0  rom1Sym.txt ABSOLUTE
    rxFifoFlowCtrl                           0x1fff11eb   Data           0  rom1Sym.txt ABSOLUTE
    g_llHdcDirAdvTime                        0x1fff11f0   Data           0  rom1Sym.txt ABSOLUTE
    chanMapUpdate                            0x1fff11f4   Data           0  rom1Sym.txt ABSOLUTE
    verInfo                                  0x1fff1206   Data           0  rom1Sym.txt ABSOLUTE
    peerInfo                                 0x1fff120c   Data           0  rom1Sym.txt ABSOLUTE
    ctrlDataIsProcess                        0x1fff1213   Data           0  rom1Sym.txt ABSOLUTE
    ctrlDataIsPending                        0x1fff1214   Data           0  rom1Sym.txt ABSOLUTE
    connId                                   0x1fff1215   Data           0  rom1Sym.txt ABSOLUTE
    onePktPerEvt                             0x1fff1216   Data           0  rom1Sym.txt ABSOLUTE
    llWaitingIrq                             0x1fff1218   Data           0  rom1Sym.txt ABSOLUTE
    ISR_entry_time                           0x1fff121c   Data           0  rom1Sym.txt ABSOLUTE
    slave_conn_event_recv_delay              0x1fff1220   Data           0  rom1Sym.txt ABSOLUTE
    sleep_flag                               0x1fff1228   Data           0  rom1Sym.txt ABSOLUTE
    counter_tracking                         0x1fff1234   Data           0  rom1Sym.txt ABSOLUTE
    rd_idx                                   0x1fff1238   Data           0  rom1Sym.txt ABSOLUTE
    rom_urx_buf                              0x1fff1278   Data           0  rom1Sym.txt ABSOLUTE
    rom_utx_buf                              0x1fff1378   Data           0  rom1Sym.txt ABSOLUTE
    burn_buf                                 0x1fff1478   Data           0  rom1Sym.txt ABSOLUTE
    adc_buf                                  0x1fff14d0   Data           0  rom1Sym.txt ABSOLUTE
    cbTimers                                 0x1fff18d0   Data           0  rom1Sym.txt ABSOLUTE
    clientInfoTbl                            0x1fff2964   Data           0  rom1Sym.txt ABSOLUTE
    l2capFixedChannels                       0x1fff29bc   Data           0  rom1Sym.txt ABSOLUTE
    l2capChannels                            0x1fff29cc   Data           0  rom1Sym.txt ABSOLUTE
    adv_param                                0x1fff2a44   Data           0  rom1Sym.txt ABSOLUTE
    conn_param                               0x1fff2a5c   Data           0  rom1Sym.txt ABSOLUTE
    deviceFeatureSet                         0x1fff2b80   Data           0  rom1Sym.txt ABSOLUTE
    g_llWhitelist                            0x1fff2b89   Data           0  rom1Sym.txt ABSOLUTE
    ll_buf                                   0x1fff2bc4   Data           0  rom1Sym.txt ABSOLUTE
    g_pmCounters                             0x1fff310c   Data           0  rom1Sym.txt ABSOLUTE
    rfCounters                               0x1fff3180   Data           0  rom1Sym.txt ABSOLUTE
    whiten_seed                              0x1fff31b8   Data           0  rom1Sym.txt ABSOLUTE
    cachedTRNGdata                           0x1fff3200   Data           0  rom1Sym.txt ABSOLUTE
    ota_patition_buffer                      0x1fff4000   Data       81920  ota_protocol.o(ota_partition_buffer_area)
    __Vectors                                0x20008000   Data           4  startup_armcm0.o(RESET)
    __Vectors_End                            0x200080c0   Data           0  startup_armcm0.o(RESET)
    __main                                   0x200080c1   Thumb Code     0  entry.o(.ARM.Collect$$$$00000000)
    _main_stk                                0x200080c1   Thumb Code     0  entry2.o(.ARM.Collect$$$$00000001)
    _main_scatterload                        0x200080c5   Thumb Code     0  entry5.o(.ARM.Collect$$$$00000004)
    __main_after_scatterload                 0x200080c9   Thumb Code     0  entry5.o(.ARM.Collect$$$$00000004)
    _main_clock                              0x200080c9   Thumb Code     0  entry7b.o(.ARM.Collect$$$$00000008)
    _main_cpp_init                           0x200080c9   Thumb Code     0  entry8b.o(.ARM.Collect$$$$0000000A)
    _main_init                               0x200080c9   Thumb Code     0  entry9a.o(.ARM.Collect$$$$0000000B)
    __rt_final_cpp                           0x200080d1   Thumb Code     0  entry10a.o(.ARM.Collect$$$$0000000D)
    __rt_final_exit                          0x200080d1   Thumb Code     0  entry11a.o(.ARM.Collect$$$$0000000F)
    Reset_Handler                            0x200080d5   Thumb Code     8  startup_armcm0.o(.text)
    NMI_Handler                              0x200080dd   Thumb Code     2  startup_armcm0.o(.text)
    HardFault_Handler                        0x200080df   Thumb Code     2  startup_armcm0.o(.text)
    SVC_Handler                              0x200080e1   Thumb Code     2  startup_armcm0.o(.text)
    PendSV_Handler                           0x200080e3   Thumb Code     2  startup_armcm0.o(.text)
    SysTick_Handler                          0x200080e5   Thumb Code     2  startup_armcm0.o(.text)
    AACI_IRQHandler                          0x200080e7   Thumb Code     0  startup_armcm0.o(.text)
    CAN_IRQHandler                           0x200080e7   Thumb Code     0  startup_armcm0.o(.text)
    CHLCD_IRQHandler                         0x200080e7   Thumb Code     0  startup_armcm0.o(.text)
    CLCD_IRQHandler                          0x200080e7   Thumb Code     0  startup_armcm0.o(.text)
    CPU_CLCD_IRQHandler                      0x200080e7   Thumb Code     0  startup_armcm0.o(.text)
    ENET_IRQHandler                          0x200080e7   Thumb Code     0  startup_armcm0.o(.text)
    FLEXRAY_IRQHandler                       0x200080e7   Thumb Code     0  startup_armcm0.o(.text)
    I2C_IRQHandler                           0x200080e7   Thumb Code     0  startup_armcm0.o(.text)
    LIN_IRQHandler                           0x200080e7   Thumb Code     0  startup_armcm0.o(.text)
    MCIA_IRQHandler                          0x200080e7   Thumb Code     0  startup_armcm0.o(.text)
    MCIB_IRQHandler                          0x200080e7   Thumb Code     0  startup_armcm0.o(.text)
    RTC_IRQHandler                           0x200080e7   Thumb Code     0  startup_armcm0.o(.text)
    SPI_IRQHandler                           0x200080e7   Thumb Code     0  startup_armcm0.o(.text)
    TIM0_IRQHandler                          0x200080e7   Thumb Code     0  startup_armcm0.o(.text)
    TIM2_IRQHandler                          0x200080e7   Thumb Code     0  startup_armcm0.o(.text)
    UART0_IRQHandler                         0x200080e7   Thumb Code     0  startup_armcm0.o(.text)
    UART1_IRQHandler                         0x200080e7   Thumb Code     0  startup_armcm0.o(.text)
    UART2_IRQHandler                         0x200080e7   Thumb Code     0  startup_armcm0.o(.text)
    UART3_IRQHandler                         0x200080e7   Thumb Code     0  startup_armcm0.o(.text)
    UART4_IRQHandler                         0x200080e7   Thumb Code     0  startup_armcm0.o(.text)
    USBDC_IRQHandler                         0x200080e7   Thumb Code     0  startup_armcm0.o(.text)
    USBHC_IRQHandler                         0x200080e7   Thumb Code     0  startup_armcm0.o(.text)
    WDT_IRQHandler                           0x200080e7   Thumb Code     0  startup_armcm0.o(.text)
    __aeabi_memcpy                           0x200080f1   Thumb Code    36  memcpya.o(.text)
    __aeabi_memcpy4                          0x200080f1   Thumb Code     0  memcpya.o(.text)
    __aeabi_memcpy8                          0x200080f1   Thumb Code     0  memcpya.o(.text)
    __aeabi_memset                           0x20008115   Thumb Code    14  memseta.o(.text)
    __aeabi_memset4                          0x20008115   Thumb Code     0  memseta.o(.text)
    __aeabi_memset8                          0x20008115   Thumb Code     0  memseta.o(.text)
    __aeabi_memclr                           0x20008123   Thumb Code     4  memseta.o(.text)
    __aeabi_memclr4                          0x20008123   Thumb Code     0  memseta.o(.text)
    __aeabi_memclr8                          0x20008123   Thumb Code     0  memseta.o(.text)
    _memset$wrapper                          0x20008127   Thumb Code    18  memseta.o(.text)
    __aeabi_uread4                           0x20008139   Thumb Code    20  uread4.o(.text)
    __rt_uread4                              0x20008139   Thumb Code     0  uread4.o(.text)
    _uread4                                  0x20008139   Thumb Code     0  uread4.o(.text)
    __scatterload                            0x2000814d   Thumb Code    28  init.o(.text)
    __scatterload_rt2                        0x2000814d   Thumb Code     0  init.o(.text)
    __decompress                             0x20008171   Thumb Code     0  __dczerorl2.o(.text)
    __decompress1                            0x20008171   Thumb Code    86  __dczerorl2.o(.text)
    Long Thumb to Thumb Veneer to osal_memcpy 0x200081c9   Thumb Code    12  anon$$obj.o(Veneer$$Code)
    Long Thumb to Thumb Veneer to __ARM_common_switch8 0x200081d5   Thumb Code    12  anon$$obj.o(Veneer$$Code)
    Long Thumb to Thumb Veneer to GAP_GetParamValue 0x200081e1   Thumb Code    12  anon$$obj.o(Veneer$$Code)
    Long Thumb to Thumb Veneer to GAP_RegisterForHCIMsgs 0x200081ed   Thumb Code    12  anon$$obj.o(Veneer$$Code)
    Long Thumb to Thumb Veneer to osal_memset 0x200081f9   Thumb Code    12  anon$$obj.o(Veneer$$Code)
    Long Thumb to Thumb Veneer to osal_msg_receive 0x20008205   Thumb Code    12  anon$$obj.o(Veneer$$Code)
    Long Thumb to Thumb Veneer to osal_msg_deallocate 0x20008211   Thumb Code    12  anon$$obj.o(Veneer$$Code)
    Long Thumb to Thumb Veneer to GAP_MakeDiscoverable 0x2000821d   Thumb Code    12  anon$$obj.o(Veneer$$Code)
    Long Thumb to Thumb Veneer to HCI_ReadRssiCmd 0x20008229   Thumb Code    12  anon$$obj.o(Veneer$$Code)
    Long Thumb to Thumb Veneer to osal_start_timerEx 0x20008235   Thumb Code    12  anon$$obj.o(Veneer$$Code)
    Long Thumb to Thumb Veneer to osal_stop_timerEx 0x20008241   Thumb Code    12  anon$$obj.o(Veneer$$Code)
    Long Thumb to Thumb Veneer to GAP_EndDiscoverable 0x2000824d   Thumb Code    12  anon$$obj.o(Veneer$$Code)
    Long Thumb to Thumb Veneer to osal_set_event 0x20008259   Thumb Code    12  anon$$obj.o(Veneer$$Code)
    Long Thumb to Thumb Veneer to GAP_UpdateAdvertisingData 0x20008265   Thumb Code    12  anon$$obj.o(Veneer$$Code)
    Long Thumb to Thumb Veneer to osal_get_timeoutEx 0x20008271   Thumb Code    12  anon$$obj.o(Veneer$$Code)
    Long Thumb to Thumb Veneer to GAP_SetParamValue 0x2000827d   Thumb Code    12  anon$$obj.o(Veneer$$Code)
    Long Thumb to Thumb Veneer to GAP_TerminateLinkReq 0x20008289   Thumb Code    12  anon$$obj.o(Veneer$$Code)
    Long Thumb to Thumb Veneer to GAP_ParamsInit 0x20008295   Thumb Code    12  anon$$obj.o(Veneer$$Code)
    Long Thumb to Thumb Veneer to GAP_SecParamsInit 0x200082a1   Thumb Code    12  anon$$obj.o(Veneer$$Code)
    Long Thumb to Thumb Veneer to GAP_PeriDevMgrInit 0x200082ad   Thumb Code    12  anon$$obj.o(Veneer$$Code)
    Long Thumb to Thumb Veneer to SM_ResponderInit 0x200082b9   Thumb Code    12  anon$$obj.o(Veneer$$Code)
    Long Thumb to Thumb Veneer to GATT_RegisterForReq 0x200082c5   Thumb Code    12  anon$$obj.o(Veneer$$Code)
    Long Thumb to Thumb Veneer to linkDB_Register 0x200082d1   Thumb Code    12  anon$$obj.o(Veneer$$Code)
    Long Thumb to Thumb Veneer to GATT_FindHandle 0x200082dd   Thumb Code    12  anon$$obj.o(Veneer$$Code)
    Long Thumb to Thumb Veneer to GATT_FindNextAttr 0x200082e9   Thumb Code    12  anon$$obj.o(Veneer$$Code)
    Long Thumb to Thumb Veneer to ATT_CompareUUID 0x200082f5   Thumb Code    12  anon$$obj.o(Veneer$$Code)
    Long Thumb to Thumb Veneer to osal_strlen 0x20008301   Thumb Code    12  anon$$obj.o(Veneer$$Code)
    Long Thumb to Thumb Veneer to GATT_RegisterService 0x2000830d   Thumb Code    12  anon$$obj.o(Veneer$$Code)
    Long Thumb to Thumb Veneer to osal_mem_alloc 0x20008319   Thumb Code    12  anon$$obj.o(Veneer$$Code)
    Long Thumb to Thumb Veneer to osal_msg_allocate 0x20008325   Thumb Code    12  anon$$obj.o(Veneer$$Code)
    Long Thumb to Thumb Veneer to osal_msg_send 0x20008331   Thumb Code    12  anon$$obj.o(Veneer$$Code)
    Long Thumb to Thumb Veneer to linkDB_State 0x2000833d   Thumb Code    12  anon$$obj.o(Veneer$$Code)
    Long Thumb to Thumb Veneer to LL_ENC_LoadKey 0x20008349   Thumb Code    12  anon$$obj.o(Veneer$$Code)
    Long Thumb to Thumb Veneer to LL_ENC_GenerateNonce 0x20008355   Thumb Code    12  anon$$obj.o(Veneer$$Code)
    Long Thumb to Thumb Veneer to read_current_fine_time 0x20008361   Thumb Code    12  anon$$obj.o(Veneer$$Code)
    Long Thumb to Thumb Veneer to ll_debug_output 0x2000836d   Thumb Code    12  anon$$obj.o(Veneer$$Code)
    Long Thumb to Thumb Veneer to ll_hw_get_irq_status 0x20008379   Thumb Code    12  anon$$obj.o(Veneer$$Code)
    Long Thumb to Thumb Veneer to ll_hw_get_tr_mode 0x20008385   Thumb Code    12  anon$$obj.o(Veneer$$Code)
    Long Thumb to Thumb Veneer to ll_hw_clr_irq 0x20008391   Thumb Code    12  anon$$obj.o(Veneer$$Code)
    Long Thumb to Thumb Veneer to ll_hw_read_rfifo 0x2000839d   Thumb Code    12  anon$$obj.o(Veneer$$Code)
    Long Thumb to Thumb Veneer to ll_hw_set_stx 0x200083a9   Thumb Code    12  anon$$obj.o(Veneer$$Code)
    Long Thumb to Thumb Veneer to ll_hw_set_trx_settle 0x200083b5   Thumb Code    12  anon$$obj.o(Veneer$$Code)
    Long Thumb to Thumb Veneer to ll_hw_go   0x200083c1   Thumb Code    12  anon$$obj.o(Veneer$$Code)
    Long Thumb to Thumb Veneer to ll_hw_rst_rfifo 0x200083cd   Thumb Code    12  anon$$obj.o(Veneer$$Code)
    Long Thumb to Thumb Veneer to ll_hw_rst_tfifo 0x200083d9   Thumb Code    12  anon$$obj.o(Veneer$$Code)
    Long Thumb to Thumb Veneer to ll_hw_write_tfifo 0x200083e5   Thumb Code    12  anon$$obj.o(Veneer$$Code)
    Long Thumb to Thumb Veneer to move_to_slave_function 0x200083f1   Thumb Code    12  anon$$obj.o(Veneer$$Code)
    Long Thumb to Thumb Veneer to ll_schedule_next_event 0x200083fd   Thumb Code    12  anon$$obj.o(Veneer$$Code)
    Long Thumb to Thumb Veneer to ll_hw_get_loop_cycle 0x20008409   Thumb Code    12  anon$$obj.o(Veneer$$Code)
    Long Thumb to Thumb Veneer to __aeabi_uidivmod 0x20008415   Thumb Code    12  anon$$obj.o(Veneer$$Code)
    Long Thumb to Thumb Veneer to ll_hw_get_anchor 0x20008421   Thumb Code    12  anon$$obj.o(Veneer$$Code)
    Long Thumb to Thumb Veneer to ll_hw_get_txAck 0x2000842d   Thumb Code    12  anon$$obj.o(Veneer$$Code)
    Long Thumb to Thumb Veneer to ll_hw_update 0x20008439   Thumb Code    12  anon$$obj.o(Veneer$$Code)
    Long Thumb to Thumb Veneer to ll_hw_get_nAck 0x20008445   Thumb Code    12  anon$$obj.o(Veneer$$Code)
    Long Thumb to Thumb Veneer to ll_hw_get_rxPkt_stats 0x20008451   Thumb Code    12  anon$$obj.o(Veneer$$Code)
    Long Thumb to Thumb Veneer to ll_hw_process_RTO 0x2000845d   Thumb Code    12  anon$$obj.o(Veneer$$Code)
    Long Thumb to Thumb Veneer to ll_hw_read_tfifo_rtlp 0x20008469   Thumb Code    12  anon$$obj.o(Veneer$$Code)
    Long Thumb to Thumb Veneer to ll_read_rxfifo 0x20008475   Thumb Code    12  anon$$obj.o(Veneer$$Code)
    Long Thumb to Thumb Veneer to llSlaveEvt_TaskEndOk 0x20008481   Thumb Code    12  anon$$obj.o(Veneer$$Code)
    Long Thumb to Thumb Veneer to llResetRfCounters 0x2000848d   Thumb Code    12  anon$$obj.o(Veneer$$Code)
    Long Thumb to Thumb Veneer to set_crc_seed 0x20008499   Thumb Code    12  anon$$obj.o(Veneer$$Code)
    Long Thumb to Thumb Veneer to set_access_address 0x200084a5   Thumb Code    12  anon$$obj.o(Veneer$$Code)
    Long Thumb to Thumb Veneer to set_channel 0x200084b1   Thumb Code    12  anon$$obj.o(Veneer$$Code)
    Long Thumb to Thumb Veneer to set_whiten_seed 0x200084bd   Thumb Code    12  anon$$obj.o(Veneer$$Code)
    Long Thumb to Thumb Veneer to ll_hw_set_rx_timeout_1st 0x200084c9   Thumb Code    12  anon$$obj.o(Veneer$$Code)
    Long Thumb to Thumb Veneer to ll_hw_set_loop_timeout 0x200084d5   Thumb Code    12  anon$$obj.o(Veneer$$Code)
    Long Thumb to Thumb Veneer to ll_hw_set_loop_nack_num 0x200084e1   Thumb Code    12  anon$$obj.o(Veneer$$Code)
    Long Thumb to Thumb Veneer to ll_hw_ign_rfifo 0x200084ed   Thumb Code    12  anon$$obj.o(Veneer$$Code)
    Long Thumb to Thumb Veneer to ll_generateTxBuffer 0x200084f9   Thumb Code    12  anon$$obj.o(Veneer$$Code)
    Long Thumb to Thumb Veneer to ll_hw_config 0x20008505   Thumb Code    12  anon$$obj.o(Veneer$$Code)
    Long Thumb to Thumb Veneer to clearTimerInt 0x20008511   Thumb Code    12  anon$$obj.o(Veneer$$Code)
    Long Thumb to Thumb Veneer to clear_timer 0x2000851d   Thumb Code    12  anon$$obj.o(Veneer$$Code)
    Long Thumb to Thumb Veneer to LL_evt_schedule 0x20008529   Thumb Code    12  anon$$obj.o(Veneer$$Code)
    Long Thumb to Thumb Veneer to config_RTC 0x20008535   Thumb Code    12  anon$$obj.o(Veneer$$Code)
    Long Thumb to Thumb Veneer to set_sleep_flag 0x20008541   Thumb Code    12  anon$$obj.o(Veneer$$Code)
    Long Thumb to Thumb Veneer to enter_sleep_off_mode 0x2000854d   Thumb Code    12  anon$$obj.o(Veneer$$Code)
    Long Thumb to Thumb Veneer to L2CAP_ConnParamUpdateReq 0x20008559   Thumb Code    12  anon$$obj.o(Veneer$$Code)
    Long Thumb to Thumb Veneer to ATT_ExecuteWriteRsp 0x20008565   Thumb Code    12  anon$$obj.o(Veneer$$Code)
    Long Thumb to Thumb Veneer to GATT_FindHandleUUID 0x20008571   Thumb Code    12  anon$$obj.o(Veneer$$Code)
    Long Thumb to Thumb Veneer to osal_memcmp 0x2000857d   Thumb Code    12  anon$$obj.o(Veneer$$Code)
    Long Thumb to Thumb Veneer to ATT_FindByTypeValueRsp 0x20008589   Thumb Code    12  anon$$obj.o(Veneer$$Code)
    Long Thumb to Thumb Veneer to ATT_ExchangeMTURsp 0x20008595   Thumb Code    12  anon$$obj.o(Veneer$$Code)
    Long Thumb to Thumb Veneer to ATT_ReadRsp 0x200085a1   Thumb Code    12  anon$$obj.o(Veneer$$Code)
    Long Thumb to Thumb Veneer to ATT_ReadBlobRsp 0x200085ad   Thumb Code    12  anon$$obj.o(Veneer$$Code)
    Long Thumb to Thumb Veneer to ATT_ErrorRsp 0x200085b9   Thumb Code    12  anon$$obj.o(Veneer$$Code)
    Long Thumb to Thumb Veneer to GATT_AppCompletedMsg 0x200085c5   Thumb Code    12  anon$$obj.o(Veneer$$Code)
    Long Thumb to Thumb Veneer to ATT_PrepareWriteRsp 0x200085d1   Thumb Code    12  anon$$obj.o(Veneer$$Code)
    Long Thumb to Thumb Veneer to GATT_VerifyReadPermissions 0x200085dd   Thumb Code    12  anon$$obj.o(Veneer$$Code)
    Long Thumb to Thumb Veneer to ATT_ReadByGrpTypeRsp 0x200085e9   Thumb Code    12  anon$$obj.o(Veneer$$Code)
    Long Thumb to Thumb Veneer to ATT_ReadByTypeRsp 0x200085f5   Thumb Code    12  anon$$obj.o(Veneer$$Code)
    Long Thumb to Thumb Veneer to ATT_ReadMultiRsp 0x20008601   Thumb Code    12  anon$$obj.o(Veneer$$Code)
    Long Thumb to Thumb Veneer to ATT_WriteRsp 0x2000860d   Thumb Code    12  anon$$obj.o(Veneer$$Code)
    Long Thumb to Thumb Veneer to disableSleep 0x20008619   Thumb Code    12  anon$$obj.o(Veneer$$Code)
    Long Thumb to Thumb Veneer to enableSleep 0x20008625   Thumb Code    12  anon$$obj.o(Veneer$$Code)
    Long Thumb to Thumb Veneer to boot_init  0x20008631   Thumb Code    12  anon$$obj.o(Veneer$$Code)
    Long Thumb to Thumb Veneer to wakeup_init 0x2000863d   Thumb Code    12  anon$$obj.o(Veneer$$Code)
    Long Thumb to Thumb Veneer to getRxBufferSize 0x20008649   Thumb Code    12  anon$$obj.o(Veneer$$Code)
    Long Thumb to Thumb Veneer to get_rx_read_ptr 0x20008655   Thumb Code    12  anon$$obj.o(Veneer$$Code)
    Long Thumb to Thumb Veneer to LL_RX_bm_alloc 0x20008661   Thumb Code    12  anon$$obj.o(Veneer$$Code)
    Long Thumb to Thumb Veneer to LL_ENC_Decrypt 0x2000866d   Thumb Code    12  anon$$obj.o(Veneer$$Code)
    Long Thumb to Thumb Veneer to LL_RxDataCompleteCback 0x20008679   Thumb Code    12  anon$$obj.o(Veneer$$Code)
    Long Thumb to Thumb Veneer to update_rx_read_ptr 0x20008685   Thumb Code    12  anon$$obj.o(Veneer$$Code)
    Long Thumb to Thumb Veneer to llConnTerminate 0x20008691   Thumb Code    12  anon$$obj.o(Veneer$$Code)
    Long Thumb to Thumb Veneer to osal_bm_free 0x2000869d   Thumb Code    12  anon$$obj.o(Veneer$$Code)
    Long Thumb to Thumb Veneer to llProcessMasterControlPacket 0x200086a9   Thumb Code    12  anon$$obj.o(Veneer$$Code)
    Long Thumb to Thumb Veneer to llProcessSlaveControlPacket 0x200086b5   Thumb Code    12  anon$$obj.o(Veneer$$Code)
    Long Thumb to Thumb Veneer to llMemCopySrc 0x200086c1   Thumb Code    12  anon$$obj.o(Veneer$$Code)
    Long Thumb to Thumb Veneer to LL_ENC_ReverseBytes 0x200086cd   Thumb Code    12  anon$$obj.o(Veneer$$Code)
    Long Thumb to Thumb Veneer to LL_ENC_GenDeviceSKD 0x200086d9   Thumb Code    12  anon$$obj.o(Veneer$$Code)
    Long Thumb to Thumb Veneer to LL_ENC_GenDeviceIV 0x200086e5   Thumb Code    12  anon$$obj.o(Veneer$$Code)
    Long Thumb to Thumb Veneer to LL_ENC_GenerateTrueRandNum 0x200086f1   Thumb Code    12  anon$$obj.o(Veneer$$Code)
    Long Thumb to Thumb Veneer to llEnqueueCtrlPkt 0x200086fd   Thumb Code    12  anon$$obj.o(Veneer$$Code)
    Long Thumb to Thumb Veneer to llDequeueCtrlPkt 0x20008709   Thumb Code    12  anon$$obj.o(Veneer$$Code)
    Long Thumb to Thumb Veneer to LL_EncLtkReqCback 0x20008715   Thumb Code    12  anon$$obj.o(Veneer$$Code)
    Long Thumb to Thumb Veneer to LL_ENC_AES128_Encrypt 0x20008721   Thumb Code    12  anon$$obj.o(Veneer$$Code)
    Long Thumb to Thumb Veneer to llReplaceCtrlPkt 0x2000872d   Thumb Code    12  anon$$obj.o(Veneer$$Code)
    Long Thumb to Thumb Veneer to llSetupStartEncReq 0x20008739   Thumb Code    12  anon$$obj.o(Veneer$$Code)
    Long Thumb to Thumb Veneer to llSetupStartEncRsp 0x20008745   Thumb Code    12  anon$$obj.o(Veneer$$Code)
    Long Thumb to Thumb Veneer to LL_EncChangeCback 0x20008751   Thumb Code    12  anon$$obj.o(Veneer$$Code)
    Long Thumb to Thumb Veneer to LL_EncKeyRefreshCback 0x2000875d   Thumb Code    12  anon$$obj.o(Veneer$$Code)
    Long Thumb to Thumb Veneer to llSetupPauseEncRsp 0x20008769   Thumb Code    12  anon$$obj.o(Veneer$$Code)
    Long Thumb to Thumb Veneer to llSetupFeatureSetReq 0x20008775   Thumb Code    12  anon$$obj.o(Veneer$$Code)
    Long Thumb to Thumb Veneer to LL_ReadRemoteUsedFeaturesCompleteCback 0x20008781   Thumb Code    12  anon$$obj.o(Veneer$$Code)
    Long Thumb to Thumb Veneer to llSetupVersionIndReq 0x2000878d   Thumb Code    12  anon$$obj.o(Veneer$$Code)
    Long Thumb to Thumb Veneer to LL_ReadRemoteVersionInfoCback 0x20008799   Thumb Code    12  anon$$obj.o(Veneer$$Code)
    Long Thumb to Thumb Veneer to llSetupDirectedAdvEvt 0x200087a5   Thumb Code    12  anon$$obj.o(Veneer$$Code)
    Long Thumb to Thumb Veneer to llSetupUndirectedAdvEvt 0x200087b1   Thumb Code    12  anon$$obj.o(Veneer$$Code)
    Long Thumb to Thumb Veneer to llSetupNonConnectableAdvEvt 0x200087bd   Thumb Code    12  anon$$obj.o(Veneer$$Code)
    Long Thumb to Thumb Veneer to llSetupScannableAdvEvt 0x200087c9   Thumb Code    12  anon$$obj.o(Veneer$$Code)
    Long Thumb to Thumb Veneer to llGetNextAdvChn 0x200087d5   Thumb Code    12  anon$$obj.o(Veneer$$Code)
    Long Thumb to Thumb Veneer to LL_Reset   0x200087e1   Thumb Code    12  anon$$obj.o(Veneer$$Code)
    Long Thumb to Thumb Veneer to set_max_length 0x200087ed   Thumb Code    12  anon$$obj.o(Veneer$$Code)
    Long Thumb to Thumb Veneer to ll_hw_set_trx 0x200087f9   Thumb Code    12  anon$$obj.o(Veneer$$Code)
    Long Thumb to Thumb Veneer to getTxBufferSize 0x20008805   Thumb Code    12  anon$$obj.o(Veneer$$Code)
    Long Thumb to Thumb Veneer to llMemCopyDst 0x20008811   Thumb Code    12  anon$$obj.o(Veneer$$Code)
    Long Thumb to Thumb Veneer to LL_ENC_Encrypt 0x2000881d   Thumb Code    12  anon$$obj.o(Veneer$$Code)
    Long Thumb to Thumb Veneer to llCheckForLstoDuringSL 0x20008829   Thumb Code    12  anon$$obj.o(Veneer$$Code)
    Long Thumb to Thumb Veneer to llEventInRange 0x20008835   Thumb Code    12  anon$$obj.o(Veneer$$Code)
    Long Thumb to Thumb Veneer to llConvertLstoToEvent 0x20008841   Thumb Code    12  anon$$obj.o(Veneer$$Code)
    Long Thumb to Thumb Veneer to llEventDelta 0x2000884d   Thumb Code    12  anon$$obj.o(Veneer$$Code)
    Long Thumb to Thumb Veneer to LL_ConnParamUpdateCback 0x20008859   Thumb Code    12  anon$$obj.o(Veneer$$Code)
    Long Thumb to Thumb Veneer to llConvertCtrlProcTimeoutToEvent 0x20008865   Thumb Code    12  anon$$obj.o(Veneer$$Code)
    Long Thumb to Thumb Veneer to llCalcTimerDrift 0x20008871   Thumb Code    12  anon$$obj.o(Veneer$$Code)
    Long Thumb to Thumb Veneer to llSetNextDataChan 0x2000887d   Thumb Code    12  anon$$obj.o(Veneer$$Code)
    Long Thumb to Thumb Veneer to get_timer3_count 0x20008889   Thumb Code    12  anon$$obj.o(Veneer$$Code)
    Long Thumb to Thumb Veneer to llProcessRxData 0x20008895   Thumb Code    12  anon$$obj.o(Veneer$$Code)
    Long Thumb to Thumb Veneer to llProcessSlaveControlProcedures 0x200088a1   Thumb Code    12  anon$$obj.o(Veneer$$Code)
    Long Thumb to Thumb Veneer to llProcessTxData 0x200088ad   Thumb Code    12  anon$$obj.o(Veneer$$Code)
    Long Thumb to Thumb Veneer to llSetupNextSlaveEvent 0x200088b9   Thumb Code    12  anon$$obj.o(Veneer$$Code)
    Long Thumb to Thumb Veneer to LL_set_default_conn_params 0x200088c5   Thumb Code    12  anon$$obj.o(Veneer$$Code)
    Long Thumb to Thumb Veneer to reset_conn_buf 0x200088d1   Thumb Code    12  anon$$obj.o(Veneer$$Code)
    Long Thumb to Thumb Veneer to llProcessChanMap 0x200088dd   Thumb Code    12  anon$$obj.o(Veneer$$Code)
    Long Thumb to Thumb Veneer to llGetNextDataChan 0x200088e9   Thumb Code    12  anon$$obj.o(Veneer$$Code)
    Long Thumb to Thumb Veneer to LL_Init    0x200088f5   Thumb Code    12  anon$$obj.o(Veneer$$Code)
    Long Thumb to Thumb Veneer to HCI_Init   0x20008901   Thumb Code    12  anon$$obj.o(Veneer$$Code)
    Long Thumb to Thumb Veneer to L2CAP_Init 0x2000890d   Thumb Code    12  anon$$obj.o(Veneer$$Code)
    Long Thumb to Thumb Veneer to GAP_Init   0x20008919   Thumb Code    12  anon$$obj.o(Veneer$$Code)
    Long Thumb to Thumb Veneer to GATT_Init  0x20008925   Thumb Code    12  anon$$obj.o(Veneer$$Code)
    Long Thumb to Thumb Veneer to SM_Init    0x20008931   Thumb Code    12  anon$$obj.o(Veneer$$Code)
    Long Thumb to Thumb Veneer to isSleepAllow 0x2000893d   Thumb Code    12  anon$$obj.o(Veneer$$Code)
    Long Thumb to Thumb Veneer to osal_next_timeout 0x20008949   Thumb Code    12  anon$$obj.o(Veneer$$Code)
    Long Thumb to Thumb Veneer to read_LL_remainder_time 0x20008955   Thumb Code    12  anon$$obj.o(Veneer$$Code)
    Long Thumb to Thumb Veneer to getSleepMode 0x20008961   Thumb Code    12  anon$$obj.o(Veneer$$Code)
    Long Thumb to Thumb Veneer to enterSleepProcess 0x2000896d   Thumb Code    12  anon$$obj.o(Veneer$$Code)
    Long Thumb to Thumb Veneer to GATT_Notification 0x20008979   Thumb Code    12  anon$$obj.o(Veneer$$Code)
    Long Thumb to Thumb Veneer to osal_init_system 0x20008985   Thumb Code    12  anon$$obj.o(Veneer$$Code)
    Long Thumb to Thumb Veneer to osal_pwrmgr_device 0x20008991   Thumb Code    12  anon$$obj.o(Veneer$$Code)
    Long Thumb to Thumb Veneer to osal_start_system 0x2000899d   Thumb Code    12  anon$$obj.o(Veneer$$Code)
    Long Thumb to Thumb Veneer to strlen     0x200089a9   Thumb Code    12  anon$$obj.o(Veneer$$Code)
    Long Thumb to Thumb Veneer to ll_hw_set_rx_tx_interval 0x200089b5   Thumb Code    12  anon$$obj.o(Veneer$$Code)
    Long Thumb to Thumb Veneer to ll_hw_set_tx_rx_interval 0x200089c1   Thumb Code    12  anon$$obj.o(Veneer$$Code)
    Long Thumb to Thumb Veneer to rf_init    0x200089cd   Thumb Code    12  anon$$obj.o(Veneer$$Code)
    Long Thumb to Thumb Veneer to osalTimeUpdate 0x200089d9   Thumb Code    12  anon$$obj.o(Veneer$$Code)
    Long Thumb to Thumb Veneer to set_timer1 0x200089e5   Thumb Code    12  anon$$obj.o(Veneer$$Code)
    Long Thumb to Thumb Veneer to app_wakeup_process 0x200089f1   Thumb Code    12  anon$$obj.o(Veneer$$Code)
    Long Thumb to Thumb Veneer to set_timer  0x200089fd   Thumb Code    12  anon$$obj.o(Veneer$$Code)
    Long Thumb to Thumb Veneer to ll_hw_set_empty_head 0x20008a09   Thumb Code    12  anon$$obj.o(Veneer$$Code)
    Long Thumb to Thumb Veneer to ll_hw_set_rx_timeout 0x20008a15   Thumb Code    12  anon$$obj.o(Veneer$$Code)
    Long Thumb to Thumb Veneer to ll_hw_set_timing 0x20008a21   Thumb Code    12  anon$$obj.o(Veneer$$Code)
    DevInfo_AddService                       0x20008a2d   Thumb Code    14  devinfoservice.o(i.DevInfo_AddService)
    DevInfo_SetParameter                     0x20008a45   Thumb Code    28  devinfoservice.o(i.DevInfo_SetParameter)
    GAPBondMgr_LinkEst                       0x20008a65   Thumb Code     4  ota.o(i.GAPBondMgr_LinkEst)
    GAPRole_GetParameter                     0x20008a69   Thumb Code   222  peripheral.o(i.GAPRole_GetParameter)
    GAPRole_Init                             0x20008b51   Thumb Code    58  peripheral.o(i.GAPRole_Init)
    GAPRole_ProcessEvent                     0x20008b95   Thumb Code   238  peripheral.o(i.GAPRole_ProcessEvent)
    GAPRole_SendUpdateParam                  0x20008c89   Thumb Code    80  peripheral.o(i.GAPRole_SendUpdateParam)
    GAPRole_SetParameter                     0x20008ce1   Thumb Code   518  peripheral.o(i.GAPRole_SetParameter)
    GAPRole_StartDevice                      0x20008ef5   Thumb Code    48  peripheral.o(i.GAPRole_StartDevice)
    GAPRole_TerminateConnection              0x20008f2d   Thumb Code    26  peripheral.o(i.GAPRole_TerminateConnection)
    GAP_DeviceInit                           0x20008f4d   Thumb Code    54  gap.o(i.GAP_DeviceInit)
    GATTServApp_AddService                   0x20008f85   Thumb Code    22  gattservapp.o(i.GATTServApp_AddService)
    GATTServApp_Init                         0x20008fa5   Thumb Code    62  gattservapp.o(i.GATTServApp_Init)
    GATTServApp_InitCharCfg                  0x20008ff1   Thumb Code    44  gattservapp.o(i.GATTServApp_InitCharCfg)
    GATTServApp_ProcessCCCWriteReq           0x20009021   Thumb Code    88  gattservapp.o(i.GATTServApp_ProcessCCCWriteReq)
    GATTServApp_ProcessEvent                 0x20009079   Thumb Code    50  gattservapp.o(i.GATTServApp_ProcessEvent)
    GATTServApp_ReadAttr                     0x200090b1   Thumb Code   534  gattservapp.o(i.GATTServApp_ReadAttr)
    GATTServApp_ReadCharCfg                  0x200092d5   Thumb Code    14  gattservapp.o(i.GATTServApp_ReadCharCfg)
    GATTServApp_RegisterService              0x200092e5   Thumb Code    86  gattservapp.o(i.GATTServApp_RegisterService)
    GATTServApp_SendCCCUpdatedEvent          0x20009341   Thumb Code    50  gattservapp.o(i.GATTServApp_SendCCCUpdatedEvent)
    GATTServApp_WriteAttr                    0x20009379   Thumb Code    62  gattservapp.o(i.GATTServApp_WriteAttr)
    GATTServApp_WriteCharCfg                 0x200093b9   Thumb Code    40  gattservapp.o(i.GATTServApp_WriteCharCfg)
    GGS_AddService                           0x200093e5   Thumb Code    22  gapgattserver.o(i.GGS_AddService)
    GGS_SetParameter                         0x20009405   Thumb Code   126  gapgattserver.o(i.GGS_SetParameter)
    HeartRate_HandleConnStatusCB             0x2000948d   Thumb Code    40  heartrateservice.o(i.HeartRate_HandleConnStatusCB)
    LL_ENC_Decrypt0                          0x200094bd   Thumb Code   318  patch.o(i.LL_ENC_Decrypt0)
    LL_ENC_Encrypt0                          0x2000960d   Thumb Code   316  patch.o(i.LL_ENC_Encrypt0)
    LL_IRQHandler1                           0x20009755   Thumb Code  1484  patch.o(i.LL_IRQHandler1)
    LL_SetAdvParam1                          0x20009d45   Thumb Code   570  patch.o(i.LL_SetAdvParam1)
    LL_set_default_conn_params1              0x20009f99   Thumb Code    58  patch.o(i.LL_set_default_conn_params1)
    LL_slave_conn_event1                     0x20009fdd   Thumb Code   346  patch.o(i.LL_slave_conn_event1)
    ProgramWord                              0x2000a155   Thumb Code   164  flash_ext.o(i.ProgramWord)
    SystemInit                               0x2000a1fd   Thumb Code     8  system_armcm0.o(i.SystemInit)
    TIM0_IRQHandler1                         0x2000a20d   Thumb Code   106  patch.o(i.TIM0_IRQHandler1)
    WaitRTCCount                             0x2000a289   Thumb Code    38  common.o(i.WaitRTCCount)
    WriteFlash                               0x2000a2b5   Thumb Code    24  flash_ext.o(i.WriteFlash)
    __scatterload_copy                       0x2000a389   Thumb Code    14  handlers.o(i.__scatterload_copy)
    __scatterload_null                       0x2000a397   Thumb Code     2  handlers.o(i.__scatterload_null)
    __scatterload_zeroinit                   0x2000a399   Thumb Code    14  handlers.o(i.__scatterload_zeroinit)
    arry_sort                                0x2000a3a7   Thumb Code    54  patch.o(i.arry_sort)
    boot_init1                               0x2000a3dd   Thumb Code    64  patch.o(i.boot_init1)
    check_chip_id                            0x2000a429   Thumb Code    26  flash_ext.o(i.check_chip_id)
    check_chip_mAddr                         0x2000a449   Thumb Code    26  flash_ext.o(i.check_chip_mAddr)
    check_internal_bus_busy                  0x2000a469   Thumb Code    34  flash_ext.o(i.check_internal_bus_busy)
    clk_gate_enable                          0x2000a4fd   Thumb Code    20  clock.o(i.clk_gate_enable)
    clk_pclk                                 0x2000a511   Thumb Code     6  clock.o(i.clk_pclk)
    clk_reset                                0x2000a51d   Thumb Code    22  clock.o(i.clk_reset)
    clock_time_rtc                           0x2000a535   Thumb Code    20  patch.o(i.clock_time_rtc)
    config_RTC1                              0x2000a54d   Thumb Code    80  patch.o(i.config_RTC1)
    disable_spif_flash_write                 0x2000a6e1   Thumb Code    28  flash_ext.o(i.disable_spif_flash_write)
    enable_spif_flash_write                  0x2000a701   Thumb Code    28  flash_ext.o(i.enable_spif_flash_write)
    enterSleepProcess1                       0x2000a721   Thumb Code   264  patch.o(i.enterSleepProcess1)
    finidv                                   0x2000a83d   Thumb Code   130  patch.o(i.finidv)
    flash_block64_erase                      0x2000a8d1   Thumb Code    74  flash_ext.o(i.flash_block64_erase)
    flash_sector_erase                       0x2000a921   Thumb Code    74  flash_ext.o(i.flash_sector_erase)
    getPN23RandNumber                        0x2000b441   Thumb Code    36  patch.o(i.getPN23RandNumber)
    gpio_pin0to3_pin31to34_control           0x2000b6a9   Thumb Code    36  gpio.o(i.gpio_pin0to3_pin31to34_control)
    hal_GPIO_IRQHandler                      0x2000b801   Thumb Code    20  gpio.o(i.hal_GPIO_IRQHandler)
    hal_UART0_IRQHandler                     0x2000b819   Thumb Code    58  uart.o(i.hal_UART0_IRQHandler)
    hal_cpyMem                               0x2000b859   Thumb Code    16  common.o(i.hal_cpyMem)
    hal_gpio_fmux                            0x2000b869   Thumb Code    34  gpio.o(i.hal_gpio_fmux)
    hal_gpio_fmux_set                        0x2000b891   Thumb Code    42  gpio.o(i.hal_gpio_fmux_set)
    hal_gpio_init                            0x2000b8c1   Thumb Code    70  gpio.o(i.hal_gpio_init)
    hal_gpio_pin_init                        0x2000b91d   Thumb Code    82  gpio.o(i.hal_gpio_pin_init)
    hal_gpio_pull_set                        0x2000b975   Thumb Code    48  gpio.o(i.hal_gpio_pull_set)
    hal_gpio_read                            0x2000b9a9   Thumb Code    52  gpio.o(i.hal_gpio_read)
    hal_gpio_wakeup_set                      0x2000b9e1   Thumb Code    76  gpio.o(i.hal_gpio_wakeup_set)
    hal_gpioin_enable                        0x2000ba31   Thumb Code   104  gpio.o(i.hal_gpioin_enable)
    hal_init                                 0x2000ba9d   Thumb Code    32  main.o(i.hal_init)
    hal_pwrmgr_RAM_retention_clr             0x2000bad9   Thumb Code    18  pwrmgr.o(i.hal_pwrmgr_RAM_retention_clr)
    hal_pwrmgr_RAM_retention_set             0x2000baf1   Thumb Code    20  pwrmgr.o(i.hal_pwrmgr_RAM_retention_set)
    hal_pwrmgr_init                          0x2000bb0d   Thumb Code    44  pwrmgr.o(i.hal_pwrmgr_init)
    hal_pwrmgr_lock                          0x2000bb41   Thumb Code    74  pwrmgr.o(i.hal_pwrmgr_lock)
    hal_pwrmgr_register                      0x2000bb95   Thumb Code    56  pwrmgr.o(i.hal_pwrmgr_register)
    hal_pwrmgr_sleep_process                 0x2000bbd1   Thumb Code    46  pwrmgr.o(i.hal_pwrmgr_sleep_process)
    hal_pwrmgr_unlock                        0x2000bc05   Thumb Code    86  pwrmgr.o(i.hal_pwrmgr_unlock)
    hal_pwrmgr_wakeup_process                0x2000bc65   Thumb Code    42  pwrmgr.o(i.hal_pwrmgr_wakeup_process)
    hal_rom_code_ini                         0x2000bd0d   Thumb Code    86  patch.o(i.hal_rom_code_ini)
    hal_rtc_clock_config                     0x2000bd71   Thumb Code   126  clock.o(i.hal_rtc_clock_config)
    hal_system_init                          0x2000bdfd   Thumb Code   176  common.o(i.hal_system_init)
    hal_uart_init                            0x2000becd   Thumb Code    76  uart.o(i.hal_uart_init)
    hal_uart_send_buff                       0x2000bf21   Thumb Code    22  uart.o(i.hal_uart_send_buff)
    init_config                              0x2000c021   Thumb Code   328  patch.o(i.init_config)
    llAdjSlaveLatencyValue                   0x2000c2c9   Thumb Code    30  patch.o(i.llAdjSlaveLatencyValue)
    llProcessRxData1                         0x2000c2e9   Thumb Code   342  patch.o(i.llProcessRxData1)
    llProcessSlaveControlPacket1             0x2000c455   Thumb Code   536  patch.o(i.llProcessSlaveControlPacket1)
    llProcessSlaveControlProcedures0         0x2000c67d   Thumb Code   638  patch.o(i.llProcessSlaveControlProcedures0)
    llSetupAdv1                              0x2000c901   Thumb Code    98  patch.o(i.llSetupAdv1)
    llSetupDirectedAdvEvt1                   0x2000c96d   Thumb Code   350  patch.o(i.llSetupDirectedAdvEvt1)
    llSetupEncRsp0                           0x2000cb01   Thumb Code   120  patch.o(i.llSetupEncRsp0)
    llSetupFeatureSetRsp1                    0x2000cb89   Thumb Code    90  patch.o(i.llSetupFeatureSetRsp1)
    llSetupNextSlaveEvent1                   0x2000cbf5   Thumb Code   314  patch.o(i.llSetupNextSlaveEvent1)
    llSetupRejectInd1                        0x2000cd3d   Thumb Code    38  patch.o(i.llSetupRejectInd1)
    llSetupTermInd1                          0x2000cd75   Thumb Code    96  patch.o(i.llSetupTermInd1)
    llSetupUndirectedAdvEvt1                 0x2000cde5   Thumb Code   210  patch.o(i.llSetupUndirectedAdvEvt1)
    llSetupUnknownRsp1                       0x2000cedd   Thumb Code    76  patch.o(i.llSetupUnknownRsp1)
    llSlaveEvt_TaskEndOk1                    0x2000cf39   Thumb Code   404  patch.o(i.llSlaveEvt_TaskEndOk1)
    ll_adptive_adj_next_time                 0x2000d0f1   Thumb Code    84  patch.o(i.ll_adptive_adj_next_time)
    ll_adptive_smart_window                  0x2000d155   Thumb Code   134  patch.o(i.ll_adptive_smart_window)
    ll_hw_go1                                0x2000d1ed   Thumb Code   112  patch.o(i.ll_hw_go1)
    main                                     0x2000d27d   Thumb Code    36  main.o(i.main)
    move_to_slave_function1                  0x2000d2a5   Thumb Code   508  patch.o(i.move_to_slave_function1)
    osalInitTasks                            0x2000d4d1   Thumb Code    94  osal_ota.o(i.osalInitTasks)
    osal_pwrmgr_powerconserve1               0x2000d535   Thumb Code   292  patch.o(i.osal_pwrmgr_powerconserve1)
    otaApp_Init                              0x2000d681   Thumb Code   252  ota.o(i.otaApp_Init)
    otaApp_ProcessEvent                      0x2000d789   Thumb Code    70  ota.o(i.otaApp_ProcessEvent)
    otaProtocol_BootMode                     0x2000d7f1   Thumb Code    44  ota_protocol.o(i.otaProtocol_BootMode)
    otaProtocol_TimerEvt                     0x2000d829   Thumb Code    18  ota_protocol.o(i.otaProtocol_TimerEvt)
    otaProtocol_init                         0x2000d841   Thumb Code    42  ota_protocol.o(i.otaProtocol_init)
    ota_AddService                           0x2000d879   Thumb Code    50  ota_service.o(i.ota_AddService)
    ota_Notify                               0x2000d999   Thumb Code    68  ota_service.o(i.ota_Notify)
    ota_flash_erase                          0x2000db05   Thumb Code    68  ota_flash.o(i.ota_flash_erase)
    ota_flash_erase_resource                 0x2000db51   Thumb Code   104  ota_flash.o(i.ota_flash_erase_resource)
    ota_flash_load_fct                       0x2000dbcd   Thumb Code     4  ota_flash.o(i.ota_flash_load_fct)
    ota_flash_read_bootsector                0x2000dbd1   Thumb Code    80  ota_flash.o(i.ota_flash_read_bootsector)
    ota_flash_write_boot_sector              0x2000dc2d   Thumb Code   102  ota_flash.o(i.ota_flash_write_boot_sector)
    ota_flash_write_partition                0x2000dc99   Thumb Code   106  ota_flash.o(i.ota_flash_write_partition)
    ota_main                                 0x2000dd03   Thumb Code    20  ota_main.o(i.ota_main)
    phy_printf                               0x2000dd81   Thumb Code    50  my_printf.o(i.phy_printf)
    phy_printf_init                          0x2000ddbd   Thumb Code    12  my_printf.o(i.phy_printf_init)
    process_ctrl_cmd                         0x2000e001   Thumb Code   454  ota_protocol.o(i.process_ctrl_cmd)
    process_ota_data                         0x2000e1e1   Thumb Code    82  ota_protocol.o(i.process_ota_data)
    process_service_evt                      0x2000e301   Thumb Code    80  ota_protocol.o(i.process_service_evt)
    rc32k_calibration                        0x2000e36d   Thumb Code    86  patch.o(i.rc32k_calibration)
    rc32k_calibration_check                  0x2000e3cd   Thumb Code    60  patch.o(i.rc32k_calibration_check)
    rc32k_tracking_check                     0x2000e40d   Thumb Code   104  patch.o(i.rc32k_tracking_check)
    read_chip_id                             0x2000e47d   Thumb Code    52  flash_ext.o(i.read_chip_id)
    read_chip_mAddr                          0x2000e4b9   Thumb Code    56  flash_ext.o(i.read_chip_mAddr)
    rf_calibrate1                            0x2000e541   Thumb Code    34  patch.o(i.rf_calibrate1)
    rf_phy_ana_cfg                           0x2000e569   Thumb Code   184  rf_phy_driver.o(i.rf_phy_ana_cfg)
    rf_phy_bb_cfg                            0x2000e645   Thumb Code   180  rf_phy_driver.o(i.rf_phy_bb_cfg)
    rf_phy_get_pktFoot                       0x2000e755   Thumb Code    42  rf_phy_driver.o(i.rf_phy_get_pktFoot)
    rf_phy_ini                               0x2000e785   Thumb Code    22  rf_phy_driver.o(i.rf_phy_ini)
    rf_phy_set_txPower                       0x2000e7a1   Thumb Code    42  rf_phy_driver.o(i.rf_phy_set_txPower)
    rf_rxDcoc_cfg                            0x2000e7d5   Thumb Code   216  rf_phy_driver.o(i.rf_rxDcoc_cfg)
    rf_tpCal_gen_cap_arrary                  0x2000e8dd   Thumb Code   146  rf_phy_driver.o(i.rf_tpCal_gen_cap_arrary)
    rf_tp_cal                                0x2000e979   Thumb Code   110  rf_phy_driver.o(i.rf_tp_cal)
    run_fct                                  0x2000ea0d   Thumb Code    22  ota_protocol.o(i.run_fct)
    subWriteReg                              0x2000ea89   Thumb Code    36  common.o(i.subWriteReg)
    validate_partition_parameter             0x2000ec2d   Thumb Code    66  ota_protocol.o(i.validate_partition_parameter)
    verify_mic                               0x2000ec81   Thumb Code    44  patch.o(i.verify_mic)
    wakeupProcess1                           0x2000ecad   Thumb Code   372  patch.o(i.wakeupProcess1)
    wakeup_init1                             0x2000ee55   Thumb Code   158  patch.o(i.wakeup_init1)
    devInfoServUUID                          0x2000ef94   Data           2  devinfoservice.o(.constdata)
    devInfoSystemIdUUID                      0x2000ef96   Data           2  devinfoservice.o(.constdata)
    devInfoModelNumberUUID                   0x2000ef98   Data           2  devinfoservice.o(.constdata)
    devInfoSerialNumberUUID                  0x2000ef9a   Data           2  devinfoservice.o(.constdata)
    devInfoFirmwareRevUUID                   0x2000ef9c   Data           2  devinfoservice.o(.constdata)
    devInfoHardwareRevUUID                   0x2000ef9e   Data           2  devinfoservice.o(.constdata)
    devInfoSoftwareRevUUID                   0x2000efa0   Data           2  devinfoservice.o(.constdata)
    devInfoMfrNameUUID                       0x2000efa2   Data           2  devinfoservice.o(.constdata)
    devInfo11073CertUUID                     0x2000efa4   Data           2  devinfoservice.o(.constdata)
    devInfoPnpIdUUID                         0x2000efa6   Data           2  devinfoservice.o(.constdata)
    devInfoCBs                               0x2000f024   Data          12  devinfoservice.o(.constdata)
    gattServiceCBs                           0x2000f038   Data          12  gattservapp.o(.constdata)
    gapServiceCBs                            0x2000f04c   Data          12  gapgattserver.o(.constdata)
    heartRateServUUID                        0x2000f058   Data           2  heartrateservice.o(.constdata)
    heartRateMeasUUID                        0x2000f05a   Data           2  heartrateservice.o(.constdata)
    heartRateSensLocUUID                     0x2000f05c   Data           2  heartrateservice.o(.constdata)
    heartRateCommandUUID                     0x2000f05e   Data           2  heartrateservice.o(.constdata)
    ota_ServiceUUID                          0x2000f068   Data          16  ota_service.o(.constdata)
    ota_CommandUUID                          0x2000f078   Data          16  ota_service.o(.constdata)
    ota_ResponseUUID                         0x2000f088   Data          16  ota_service.o(.constdata)
    ota_DataUUID                             0x2000f098   Data          16  ota_service.o(.constdata)
    ota_ProfileCBs                           0x2000f0b0   Data          12  ota_service.o(.constdata)
    tasksArr                                 0x2000f0bc   Data          36  osal_ota.o(.constdata)
    tasksCnt                                 0x2000f0e0   Data           1  osal_ota.o(.constdata)
    Region$$Table$$Base                      0x2000f114   Number         0  anon$$obj.o(Region$$Table)
    Region$$Table$$Limit                     0x2000f184   Number         0  anon$$obj.o(Region$$Table)
    appTaskID                                0x2000f2d0   Data           1  gattservapp.o(.data)
    GATTServApp_TaskID                       0x2000f2d2   Data           1  gattservapp.o(.data)
    gapRole_AdvEnabled                       0x2000f3b0   Data           1  peripheral.o(.data)
    gapRole_AdvEventType                     0x2000f3b8   Data           1  peripheral.o(.data)
    tasksEvents                              0x2000f53c   Data           4  osal_ota.o(.data)
    ota_TaskID                               0x2000f541   Data           1  ota.o(.data)
    put_char_size                            0x2000f57a   Data           2  my_printf.o(.data)
    SystemCoreClock                          0x2000f584   Data           4  system_armcm0.o(.data)
    s_company_id                             0x2000f588   Data           4  patch.o(.data)
    g_smartWindowRTOCnt                      0x2000f58c   Data           1  patch.o(.data)
    g_same_rf_channel_flag                   0x2000f58d   Data           1  patch.o(.data)
    g_adv_taskID                             0x2000f58e   Data           1  patch.o(.data)
    g_conn_taskID                            0x2000f58f   Data           1  patch.o(.data)
    g_conn_param_carrSens                    0x2000f590   Data           1  patch.o(.data)
    g_adv_taskEvent                          0x2000f592   Data           2  patch.o(.data)
    g_conn_taskEvent                         0x2000f594   Data           2  patch.o(.data)
    g_conn_param_foff                        0x2000f596   Data           2  patch.o(.data)
    pGlobal_config                           0x2000f598   Data           4  patch.o(.data)
    g_smartWindowLater                       0x2000f59c   Data           4  patch.o(.data)
    g_smartWindowSize                        0x2000f5a0   Data           4  patch.o(.data)
    g_smartWindowActiveCnt                   0x2000f5a4   Data           4  patch.o(.data)
    g_smartWindowPreAnchPoint                0x2000f5a8   Data           4  patch.o(.data)
    g_counter_traking_avg                    0x2000f5ac   Data           4  patch.o(.data)
    g_wakeup_rtc_tick                        0x2000f5b0   Data           4  patch.o(.data)
    g_counter_traking_cnt                    0x2000f5b4   Data           4  patch.o(.data)
    g_TIM2_IRQ_TIM3_CurrCount                0x2000f5b8   Data           4  patch.o(.data)
    g_TIM2_IRQ_to_Sleep_DeltTick             0x2000f5bc   Data           4  patch.o(.data)
    g_TIM2_IRQ_PendingTick                   0x2000f5c0   Data           4  patch.o(.data)
    g_osal_tick_trim                         0x2000f5c4   Data           4  patch.o(.data)
    g_osalTickTrim_mod                       0x2000f5c8   Data           4  patch.o(.data)
    accuTimerDrift                           0x2000f5cc   Data           4  patch.o(.data)
    LL_PLUS_ScanRequestFilterCBack           0x2000f5d0   Data           4  patch.o(.data)
    g_getPn23_cnt                            0x2000f5d4   Data           4  patch.o(.data)
    g_getPn23_seed                           0x2000f5d8   Data           4  patch.o(.data)
    pCtrlData                                0x2000f5e0   Data           4  patch.o(.data)
    g_rfPhyXtalCap                           0x2000f5e4   Data           1  rf_phy_driver.o(.data)
    g_rfPhyTpCal0                            0x2000f5e5   Data           1  rf_phy_driver.o(.data)
    g_rfPhyTpCal1                            0x2000f5e6   Data           1  rf_phy_driver.o(.data)
    g_rfPhyTxPower                           0x2000f5e7   Data           1  rf_phy_driver.o(.data)
    g_rfPhyPktFmt                            0x2000f5e8   Data           1  rf_phy_driver.o(.data)
    g_rfPhyFreqOffSet                        0x2000f5e9   Data           1  rf_phy_driver.o(.data)
    g_system_clk                             0x2000f5ea   Data           1  rf_phy_driver.o(.data)
    g_rfPhyClkSel                            0x2000f5eb   Data           1  rf_phy_driver.o(.data)
    g_dtmModeType                            0x2000f5ec   Data           1  rf_phy_driver.o(.data)
    g_dtmCmd                                 0x2000f5ed   Data           1  rf_phy_driver.o(.data)
    g_dtmFreq                                0x2000f5ee   Data           1  rf_phy_driver.o(.data)
    g_dtmLength                              0x2000f5ef   Data           1  rf_phy_driver.o(.data)
    g_dtmExtLen                              0x2000f5f0   Data           1  rf_phy_driver.o(.data)
    g_dtmPKT                                 0x2000f5f1   Data           1  rf_phy_driver.o(.data)
    g_dtmCtrl                                0x2000f5f2   Data           1  rf_phy_driver.o(.data)
    g_dtmPara                                0x2000f5f3   Data           1  rf_phy_driver.o(.data)
    g_dtmEvt                                 0x2000f5f4   Data           1  rf_phy_driver.o(.data)
    g_dtmStatus                              0x2000f5f5   Data           1  rf_phy_driver.o(.data)
    g_dtmTxPower                             0x2000f5f6   Data           1  rf_phy_driver.o(.data)
    g_dtmRssi                                0x2000f5f7   Data           1  rf_phy_driver.o(.data)
    g_dtmCarrSens                            0x2000f5f8   Data           1  rf_phy_driver.o(.data)
    g_dtmTpCalEnable                         0x2000f5f9   Data           1  rf_phy_driver.o(.data)
    g_rfPhyDtmCmd                            0x2000f5fa   Data           2  rf_phy_driver.o(.data)
    g_rfPhyDtmEvt                            0x2000f5fc   Data           2  rf_phy_driver.o(.data)
    g_dtmPktIntv                             0x2000f5fe   Data           2  rf_phy_driver.o(.data)
    g_dtmPktCount                            0x2000f600   Data           2  rf_phy_driver.o(.data)
    g_dtmRxCrcNum                            0x2000f602   Data           2  rf_phy_driver.o(.data)
    g_dtmRxTONum                             0x2000f604   Data           2  rf_phy_driver.o(.data)
    g_dtmRsp                                 0x2000f606   Data           2  rf_phy_driver.o(.data)
    g_dtmFoff                                0x2000f608   Data           2  rf_phy_driver.o(.data)
    g_rfPhyRxDcIQ                            0x2000f60c   Data           4  rf_phy_driver.o(.data)
    g_dtmTick                                0x2000f610   Data           4  rf_phy_driver.o(.data)
    g_dtmPerAutoIntv                         0x2000f614   Data           4  rf_phy_driver.o(.data)
    g_dtmAccessCode                          0x2000f618   Data           4  rf_phy_driver.o(.data)
    MID                                      0x2000f61c   Data           1  flash_ext.o(.data)
    JID8                                     0x2000f61d   Data           1  flash_ext.o(.data)
    JID0                                     0x2000f61e   Data           1  flash_ext.o(.data)
    g_chipMAddr                              0x2000f61f   Data           7  flash_ext.o(.data)
    put_char                                 0x2000fc74   Data         120  my_printf.o(.bss)
    m_uartCtx                                0x2000fcec   Data          32  uart.o(.bss)
    g_perStatsByChan                         0x2000fd84   Data         444  patch.o(.bss)
    g_rfPhyTpCalCapArry                      0x2000ff40   Data          40  rf_phy_driver.o(.bss)
    g_chipId                                 0x2000ff68   Data          65  flash_ext.o(.bss)
    __initial_sp                             0x20010bb0   Data           0  startup_armcm0.o(STACK)
    Long Thumb to Thumb Veneer to jump_to_application 0x20012001   Thumb Code    12  anon$$obj.o(Veneer$$Code)
    LL_ENC_AES128_Encrypt_X                  0x2001200d   Thumb Code   344  aes.o(i.LL_ENC_AES128_Encrypt_X)
    aes_ccm_phyplus_dec                      0x20012169   Thumb Code   418  aes.o(i.aes_ccm_phyplus_dec)
    crc16                                    0x20012315   Thumb Code    54  crc16.o(i.crc16)
    flash_load_parition                      0x20012351   Thumb Code    24  aes.o(i.flash_load_parition)
    is_crypto_app                            0x2001236d   Thumb Code    10  aes.o(i.is_crypto_app)
    xor128bit                                0x20012377   Thumb Code    24  aes.o(i.xor128bit)
    otaProtocol_RunApp                       0x20012391   Thumb Code    12  ota_protocol.o(ota_app_loader_area)
    run_application                          0x2001239d   Thumb Code    22  ota_protocol.o(ota_app_loader_area)
    ota_flash_read                           0x200123b9   Thumb Code    48  ota_flash.o(ota_app_loader_area)
    ota_flash_load_app                       0x200123e9   Thumb Code   228  ota_flash.o(ota_app_loader_area)



==============================================================================

Memory Map of the image

  Image Entry point : 0x200080c1

  Load Region LR_IROM1 (Base: 0x20008000, Size: 0x00007628, Max: 0x0000a000, ABSOLUTE, COMPRESSED[0x00007300])

    Execution Region ER_IROM1 (Exec base: 0x20008000, Load base: 0x20008000, Size: 0x00008bb0, Max: 0x0000a000, ABSOLUTE, COMPRESSED[0x0000017c])

    Exec Addr    Load Addr    Size         Type   Attr      Idx    E Section Name        Object

    0x20008000   0x20008000   0x000000c0   Data   RO         1937    RESET               startup_armcm0.o
    0x200080c0   0x200080c0   0x00000000   Code   RO         2262  * .ARM.Collect$$$$00000000  mc_p.l(entry.o)
    0x200080c0   0x200080c0   0x00000004   Code   RO         2273    .ARM.Collect$$$$00000001  mc_p.l(entry2.o)
    0x200080c4   0x200080c4   0x00000004   Code   RO         2276    .ARM.Collect$$$$00000004  mc_p.l(entry5.o)
    0x200080c8   0x200080c8   0x00000000   Code   RO         2278    .ARM.Collect$$$$00000008  mc_p.l(entry7b.o)
    0x200080c8   0x200080c8   0x00000000   Code   RO         2280    .ARM.Collect$$$$0000000A  mc_p.l(entry8b.o)
    0x200080c8   0x200080c8   0x00000008   Code   RO         2281    .ARM.Collect$$$$0000000B  mc_p.l(entry9a.o)
    0x200080d0   0x200080d0   0x00000000   Code   RO         2283    .ARM.Collect$$$$0000000D  mc_p.l(entry10a.o)
    0x200080d0   0x200080d0   0x00000000   Code   RO         2285    .ARM.Collect$$$$0000000F  mc_p.l(entry11a.o)
    0x200080d0   0x200080d0   0x00000004   Code   RO         2274    .ARM.Collect$$$$00002712  mc_p.l(entry2.o)
    0x200080d4   0x200080d4   0x0000001c   Code   RO         1938    .text               startup_armcm0.o
    0x200080f0   0x200080f0   0x00000024   Code   RO         2265    .text               mc_p.l(memcpya.o)
    0x20008114   0x20008114   0x00000024   Code   RO         2267    .text               mc_p.l(memseta.o)
    0x20008138   0x20008138   0x00000014   Code   RO         2271    .text               mc_p.l(uread4.o)
    0x2000814c   0x2000814c   0x00000024   Code   RO         2287    .text               mc_p.l(init.o)
    0x20008170   0x20008170   0x00000056   Code   RO         2297    .text               mc_p.l(__dczerorl2.o)
    0x200081c6   COMPRESSED   0x00000002   PAD
    0x200081c8   0x200081c8   0x0000000c   Ven    RO         2299    Veneer$$Code        anon$$obj.o
    0x200081d4   0x200081d4   0x0000000c   Ven    RO         2300    Veneer$$Code        anon$$obj.o
    0x200081e0   0x200081e0   0x0000000c   Ven    RO         2301    Veneer$$Code        anon$$obj.o
    0x200081ec   0x200081ec   0x0000000c   Ven    RO         2302    Veneer$$Code        anon$$obj.o
    0x200081f8   0x200081f8   0x0000000c   Ven    RO         2303    Veneer$$Code        anon$$obj.o
    0x20008204   0x20008204   0x0000000c   Ven    RO         2304    Veneer$$Code        anon$$obj.o
    0x20008210   0x20008210   0x0000000c   Ven    RO         2305    Veneer$$Code        anon$$obj.o
    0x2000821c   0x2000821c   0x0000000c   Ven    RO         2306    Veneer$$Code        anon$$obj.o
    0x20008228   0x20008228   0x0000000c   Ven    RO         2307    Veneer$$Code        anon$$obj.o
    0x20008234   0x20008234   0x0000000c   Ven    RO         2308    Veneer$$Code        anon$$obj.o
    0x20008240   0x20008240   0x0000000c   Ven    RO         2309    Veneer$$Code        anon$$obj.o
    0x2000824c   0x2000824c   0x0000000c   Ven    RO         2310    Veneer$$Code        anon$$obj.o
    0x20008258   0x20008258   0x0000000c   Ven    RO         2311    Veneer$$Code        anon$$obj.o
    0x20008264   0x20008264   0x0000000c   Ven    RO         2312    Veneer$$Code        anon$$obj.o
    0x20008270   0x20008270   0x0000000c   Ven    RO         2313    Veneer$$Code        anon$$obj.o
    0x2000827c   0x2000827c   0x0000000c   Ven    RO         2314    Veneer$$Code        anon$$obj.o
    0x20008288   0x20008288   0x0000000c   Ven    RO         2315    Veneer$$Code        anon$$obj.o
    0x20008294   0x20008294   0x0000000c   Ven    RO         2316    Veneer$$Code        anon$$obj.o
    0x200082a0   0x200082a0   0x0000000c   Ven    RO         2317    Veneer$$Code        anon$$obj.o
    0x200082ac   0x200082ac   0x0000000c   Ven    RO         2318    Veneer$$Code        anon$$obj.o
    0x200082b8   0x200082b8   0x0000000c   Ven    RO         2319    Veneer$$Code        anon$$obj.o
    0x200082c4   0x200082c4   0x0000000c   Ven    RO         2320    Veneer$$Code        anon$$obj.o
    0x200082d0   0x200082d0   0x0000000c   Ven    RO         2321    Veneer$$Code        anon$$obj.o
    0x200082dc   0x200082dc   0x0000000c   Ven    RO         2322    Veneer$$Code        anon$$obj.o
    0x200082e8   0x200082e8   0x0000000c   Ven    RO         2323    Veneer$$Code        anon$$obj.o
    0x200082f4   0x200082f4   0x0000000c   Ven    RO         2324    Veneer$$Code        anon$$obj.o
    0x20008300   0x20008300   0x0000000c   Ven    RO         2325    Veneer$$Code        anon$$obj.o
    0x2000830c   0x2000830c   0x0000000c   Ven    RO         2326    Veneer$$Code        anon$$obj.o
    0x20008318   0x20008318   0x0000000c   Ven    RO         2327    Veneer$$Code        anon$$obj.o
    0x20008324   0x20008324   0x0000000c   Ven    RO         2328    Veneer$$Code        anon$$obj.o
    0x20008330   0x20008330   0x0000000c   Ven    RO         2329    Veneer$$Code        anon$$obj.o
    0x2000833c   0x2000833c   0x0000000c   Ven    RO         2330    Veneer$$Code        anon$$obj.o
    0x20008348   0x20008348   0x0000000c   Ven    RO         2331    Veneer$$Code        anon$$obj.o
    0x20008354   0x20008354   0x0000000c   Ven    RO         2332    Veneer$$Code        anon$$obj.o
    0x20008360   0x20008360   0x0000000c   Ven    RO         2333    Veneer$$Code        anon$$obj.o
    0x2000836c   0x2000836c   0x0000000c   Ven    RO         2334    Veneer$$Code        anon$$obj.o
    0x20008378   0x20008378   0x0000000c   Ven    RO         2335    Veneer$$Code        anon$$obj.o
    0x20008384   0x20008384   0x0000000c   Ven    RO         2336    Veneer$$Code        anon$$obj.o
    0x20008390   0x20008390   0x0000000c   Ven    RO         2337    Veneer$$Code        anon$$obj.o
    0x2000839c   0x2000839c   0x0000000c   Ven    RO         2338    Veneer$$Code        anon$$obj.o
    0x200083a8   0x200083a8   0x0000000c   Ven    RO         2339    Veneer$$Code        anon$$obj.o
    0x200083b4   0x200083b4   0x0000000c   Ven    RO         2340    Veneer$$Code        anon$$obj.o
    0x200083c0   0x200083c0   0x0000000c   Ven    RO         2341    Veneer$$Code        anon$$obj.o
    0x200083cc   0x200083cc   0x0000000c   Ven    RO         2342    Veneer$$Code        anon$$obj.o
    0x200083d8   0x200083d8   0x0000000c   Ven    RO         2343    Veneer$$Code        anon$$obj.o
    0x200083e4   0x200083e4   0x0000000c   Ven    RO         2344    Veneer$$Code        anon$$obj.o
    0x200083f0   0x200083f0   0x0000000c   Ven    RO         2345    Veneer$$Code        anon$$obj.o
    0x200083fc   0x200083fc   0x0000000c   Ven    RO         2346    Veneer$$Code        anon$$obj.o
    0x20008408   0x20008408   0x0000000c   Ven    RO         2347    Veneer$$Code        anon$$obj.o
    0x20008414   0x20008414   0x0000000c   Ven    RO         2348    Veneer$$Code        anon$$obj.o
    0x20008420   0x20008420   0x0000000c   Ven    RO         2349    Veneer$$Code        anon$$obj.o
    0x2000842c   0x2000842c   0x0000000c   Ven    RO         2350    Veneer$$Code        anon$$obj.o
    0x20008438   0x20008438   0x0000000c   Ven    RO         2351    Veneer$$Code        anon$$obj.o
    0x20008444   0x20008444   0x0000000c   Ven    RO         2352    Veneer$$Code        anon$$obj.o
    0x20008450   0x20008450   0x0000000c   Ven    RO         2353    Veneer$$Code        anon$$obj.o
    0x2000845c   0x2000845c   0x0000000c   Ven    RO         2354    Veneer$$Code        anon$$obj.o
    0x20008468   0x20008468   0x0000000c   Ven    RO         2355    Veneer$$Code        anon$$obj.o
    0x20008474   0x20008474   0x0000000c   Ven    RO         2356    Veneer$$Code        anon$$obj.o
    0x20008480   0x20008480   0x0000000c   Ven    RO         2357    Veneer$$Code        anon$$obj.o
    0x2000848c   0x2000848c   0x0000000c   Ven    RO         2358    Veneer$$Code        anon$$obj.o
    0x20008498   0x20008498   0x0000000c   Ven    RO         2359    Veneer$$Code        anon$$obj.o
    0x200084a4   0x200084a4   0x0000000c   Ven    RO         2360    Veneer$$Code        anon$$obj.o
    0x200084b0   0x200084b0   0x0000000c   Ven    RO         2361    Veneer$$Code        anon$$obj.o
    0x200084bc   0x200084bc   0x0000000c   Ven    RO         2362    Veneer$$Code        anon$$obj.o
    0x200084c8   0x200084c8   0x0000000c   Ven    RO         2363    Veneer$$Code        anon$$obj.o
    0x200084d4   0x200084d4   0x0000000c   Ven    RO         2364    Veneer$$Code        anon$$obj.o
    0x200084e0   0x200084e0   0x0000000c   Ven    RO         2365    Veneer$$Code        anon$$obj.o
    0x200084ec   0x200084ec   0x0000000c   Ven    RO         2366    Veneer$$Code        anon$$obj.o
    0x200084f8   0x200084f8   0x0000000c   Ven    RO         2367    Veneer$$Code        anon$$obj.o
    0x20008504   0x20008504   0x0000000c   Ven    RO         2368    Veneer$$Code        anon$$obj.o
    0x20008510   0x20008510   0x0000000c   Ven    RO         2369    Veneer$$Code        anon$$obj.o
    0x2000851c   0x2000851c   0x0000000c   Ven    RO         2370    Veneer$$Code        anon$$obj.o
    0x20008528   0x20008528   0x0000000c   Ven    RO         2371    Veneer$$Code        anon$$obj.o
    0x20008534   0x20008534   0x0000000c   Ven    RO         2372    Veneer$$Code        anon$$obj.o
    0x20008540   0x20008540   0x0000000c   Ven    RO         2373    Veneer$$Code        anon$$obj.o
    0x2000854c   0x2000854c   0x0000000c   Ven    RO         2374    Veneer$$Code        anon$$obj.o
    0x20008558   0x20008558   0x0000000c   Ven    RO         2375    Veneer$$Code        anon$$obj.o
    0x20008564   0x20008564   0x0000000c   Ven    RO         2376    Veneer$$Code        anon$$obj.o
    0x20008570   0x20008570   0x0000000c   Ven    RO         2377    Veneer$$Code        anon$$obj.o
    0x2000857c   0x2000857c   0x0000000c   Ven    RO         2378    Veneer$$Code        anon$$obj.o
    0x20008588   0x20008588   0x0000000c   Ven    RO         2379    Veneer$$Code        anon$$obj.o
    0x20008594   0x20008594   0x0000000c   Ven    RO         2380    Veneer$$Code        anon$$obj.o
    0x200085a0   0x200085a0   0x0000000c   Ven    RO         2381    Veneer$$Code        anon$$obj.o
    0x200085ac   0x200085ac   0x0000000c   Ven    RO         2382    Veneer$$Code        anon$$obj.o
    0x200085b8   0x200085b8   0x0000000c   Ven    RO         2383    Veneer$$Code        anon$$obj.o
    0x200085c4   0x200085c4   0x0000000c   Ven    RO         2384    Veneer$$Code        anon$$obj.o
    0x200085d0   0x200085d0   0x0000000c   Ven    RO         2385    Veneer$$Code        anon$$obj.o
    0x200085dc   0x200085dc   0x0000000c   Ven    RO         2386    Veneer$$Code        anon$$obj.o
    0x200085e8   0x200085e8   0x0000000c   Ven    RO         2387    Veneer$$Code        anon$$obj.o
    0x200085f4   0x200085f4   0x0000000c   Ven    RO         2388    Veneer$$Code        anon$$obj.o
    0x20008600   0x20008600   0x0000000c   Ven    RO         2389    Veneer$$Code        anon$$obj.o
    0x2000860c   0x2000860c   0x0000000c   Ven    RO         2390    Veneer$$Code        anon$$obj.o
    0x20008618   0x20008618   0x0000000c   Ven    RO         2391    Veneer$$Code        anon$$obj.o
    0x20008624   0x20008624   0x0000000c   Ven    RO         2392    Veneer$$Code        anon$$obj.o
    0x20008630   0x20008630   0x0000000c   Ven    RO         2393    Veneer$$Code        anon$$obj.o
    0x2000863c   0x2000863c   0x0000000c   Ven    RO         2394    Veneer$$Code        anon$$obj.o
    0x20008648   0x20008648   0x0000000c   Ven    RO         2395    Veneer$$Code        anon$$obj.o
    0x20008654   0x20008654   0x0000000c   Ven    RO         2396    Veneer$$Code        anon$$obj.o
    0x20008660   0x20008660   0x0000000c   Ven    RO         2397    Veneer$$Code        anon$$obj.o
    0x2000866c   0x2000866c   0x0000000c   Ven    RO         2398    Veneer$$Code        anon$$obj.o
    0x20008678   0x20008678   0x0000000c   Ven    RO         2399    Veneer$$Code        anon$$obj.o
    0x20008684   0x20008684   0x0000000c   Ven    RO         2400    Veneer$$Code        anon$$obj.o
    0x20008690   0x20008690   0x0000000c   Ven    RO         2401    Veneer$$Code        anon$$obj.o
    0x2000869c   0x2000869c   0x0000000c   Ven    RO         2402    Veneer$$Code        anon$$obj.o
    0x200086a8   0x200086a8   0x0000000c   Ven    RO         2403    Veneer$$Code        anon$$obj.o
    0x200086b4   0x200086b4   0x0000000c   Ven    RO         2404    Veneer$$Code        anon$$obj.o
    0x200086c0   0x200086c0   0x0000000c   Ven    RO         2405    Veneer$$Code        anon$$obj.o
    0x200086cc   0x200086cc   0x0000000c   Ven    RO         2406    Veneer$$Code        anon$$obj.o
    0x200086d8   0x200086d8   0x0000000c   Ven    RO         2407    Veneer$$Code        anon$$obj.o
    0x200086e4   0x200086e4   0x0000000c   Ven    RO         2408    Veneer$$Code        anon$$obj.o
    0x200086f0   0x200086f0   0x0000000c   Ven    RO         2409    Veneer$$Code        anon$$obj.o
    0x200086fc   0x200086fc   0x0000000c   Ven    RO         2410    Veneer$$Code        anon$$obj.o
    0x20008708   0x20008708   0x0000000c   Ven    RO         2411    Veneer$$Code        anon$$obj.o
    0x20008714   0x20008714   0x0000000c   Ven    RO         2412    Veneer$$Code        anon$$obj.o
    0x20008720   0x20008720   0x0000000c   Ven    RO         2413    Veneer$$Code        anon$$obj.o
    0x2000872c   0x2000872c   0x0000000c   Ven    RO         2414    Veneer$$Code        anon$$obj.o
    0x20008738   0x20008738   0x0000000c   Ven    RO         2415    Veneer$$Code        anon$$obj.o
    0x20008744   0x20008744   0x0000000c   Ven    RO         2416    Veneer$$Code        anon$$obj.o
    0x20008750   0x20008750   0x0000000c   Ven    RO         2417    Veneer$$Code        anon$$obj.o
    0x2000875c   0x2000875c   0x0000000c   Ven    RO         2418    Veneer$$Code        anon$$obj.o
    0x20008768   0x20008768   0x0000000c   Ven    RO         2419    Veneer$$Code        anon$$obj.o
    0x20008774   0x20008774   0x0000000c   Ven    RO         2420    Veneer$$Code        anon$$obj.o
    0x20008780   0x20008780   0x0000000c   Ven    RO         2421    Veneer$$Code        anon$$obj.o
    0x2000878c   0x2000878c   0x0000000c   Ven    RO         2422    Veneer$$Code        anon$$obj.o
    0x20008798   0x20008798   0x0000000c   Ven    RO         2423    Veneer$$Code        anon$$obj.o
    0x200087a4   0x200087a4   0x0000000c   Ven    RO         2424    Veneer$$Code        anon$$obj.o
    0x200087b0   0x200087b0   0x0000000c   Ven    RO         2425    Veneer$$Code        anon$$obj.o
    0x200087bc   0x200087bc   0x0000000c   Ven    RO         2426    Veneer$$Code        anon$$obj.o
    0x200087c8   0x200087c8   0x0000000c   Ven    RO         2427    Veneer$$Code        anon$$obj.o
    0x200087d4   0x200087d4   0x0000000c   Ven    RO         2428    Veneer$$Code        anon$$obj.o
    0x200087e0   0x200087e0   0x0000000c   Ven    RO         2429    Veneer$$Code        anon$$obj.o
    0x200087ec   0x200087ec   0x0000000c   Ven    RO         2430    Veneer$$Code        anon$$obj.o
    0x200087f8   0x200087f8   0x0000000c   Ven    RO         2431    Veneer$$Code        anon$$obj.o
    0x20008804   0x20008804   0x0000000c   Ven    RO         2432    Veneer$$Code        anon$$obj.o
    0x20008810   0x20008810   0x0000000c   Ven    RO         2433    Veneer$$Code        anon$$obj.o
    0x2000881c   0x2000881c   0x0000000c   Ven    RO         2434    Veneer$$Code        anon$$obj.o
    0x20008828   0x20008828   0x0000000c   Ven    RO         2435    Veneer$$Code        anon$$obj.o
    0x20008834   0x20008834   0x0000000c   Ven    RO         2436    Veneer$$Code        anon$$obj.o
    0x20008840   0x20008840   0x0000000c   Ven    RO         2437    Veneer$$Code        anon$$obj.o
    0x2000884c   0x2000884c   0x0000000c   Ven    RO         2438    Veneer$$Code        anon$$obj.o
    0x20008858   0x20008858   0x0000000c   Ven    RO         2439    Veneer$$Code        anon$$obj.o
    0x20008864   0x20008864   0x0000000c   Ven    RO         2440    Veneer$$Code        anon$$obj.o
    0x20008870   0x20008870   0x0000000c   Ven    RO         2441    Veneer$$Code        anon$$obj.o
    0x2000887c   0x2000887c   0x0000000c   Ven    RO         2442    Veneer$$Code        anon$$obj.o
    0x20008888   0x20008888   0x0000000c   Ven    RO         2443    Veneer$$Code        anon$$obj.o
    0x20008894   0x20008894   0x0000000c   Ven    RO         2444    Veneer$$Code        anon$$obj.o
    0x200088a0   0x200088a0   0x0000000c   Ven    RO         2445    Veneer$$Code        anon$$obj.o
    0x200088ac   0x200088ac   0x0000000c   Ven    RO         2446    Veneer$$Code        anon$$obj.o
    0x200088b8   0x200088b8   0x0000000c   Ven    RO         2447    Veneer$$Code        anon$$obj.o
    0x200088c4   0x200088c4   0x0000000c   Ven    RO         2448    Veneer$$Code        anon$$obj.o
    0x200088d0   0x200088d0   0x0000000c   Ven    RO         2449    Veneer$$Code        anon$$obj.o
    0x200088dc   0x200088dc   0x0000000c   Ven    RO         2450    Veneer$$Code        anon$$obj.o
    0x200088e8   0x200088e8   0x0000000c   Ven    RO         2451    Veneer$$Code        anon$$obj.o
    0x200088f4   0x200088f4   0x0000000c   Ven    RO         2452    Veneer$$Code        anon$$obj.o
    0x20008900   0x20008900   0x0000000c   Ven    RO         2453    Veneer$$Code        anon$$obj.o
    0x2000890c   0x2000890c   0x0000000c   Ven    RO         2454    Veneer$$Code        anon$$obj.o
    0x20008918   0x20008918   0x0000000c   Ven    RO         2455    Veneer$$Code        anon$$obj.o
    0x20008924   0x20008924   0x0000000c   Ven    RO         2456    Veneer$$Code        anon$$obj.o
    0x20008930   0x20008930   0x0000000c   Ven    RO         2457    Veneer$$Code        anon$$obj.o
    0x2000893c   0x2000893c   0x0000000c   Ven    RO         2458    Veneer$$Code        anon$$obj.o
    0x20008948   0x20008948   0x0000000c   Ven    RO         2459    Veneer$$Code        anon$$obj.o
    0x20008954   0x20008954   0x0000000c   Ven    RO         2460    Veneer$$Code        anon$$obj.o
    0x20008960   0x20008960   0x0000000c   Ven    RO         2461    Veneer$$Code        anon$$obj.o
    0x2000896c   0x2000896c   0x0000000c   Ven    RO         2462    Veneer$$Code        anon$$obj.o
    0x20008978   0x20008978   0x0000000c   Ven    RO         2463    Veneer$$Code        anon$$obj.o
    0x20008984   0x20008984   0x0000000c   Ven    RO         2464    Veneer$$Code        anon$$obj.o
    0x20008990   0x20008990   0x0000000c   Ven    RO         2465    Veneer$$Code        anon$$obj.o
    0x2000899c   0x2000899c   0x0000000c   Ven    RO         2466    Veneer$$Code        anon$$obj.o
    0x200089a8   0x200089a8   0x0000000c   Ven    RO         2467    Veneer$$Code        anon$$obj.o
    0x200089b4   0x200089b4   0x0000000c   Ven    RO         2468    Veneer$$Code        anon$$obj.o
    0x200089c0   0x200089c0   0x0000000c   Ven    RO         2469    Veneer$$Code        anon$$obj.o
    0x200089cc   0x200089cc   0x0000000c   Ven    RO         2470    Veneer$$Code        anon$$obj.o
    0x200089d8   0x200089d8   0x0000000c   Ven    RO         2471    Veneer$$Code        anon$$obj.o
    0x200089e4   0x200089e4   0x0000000c   Ven    RO         2472    Veneer$$Code        anon$$obj.o
    0x200089f0   0x200089f0   0x0000000c   Ven    RO         2473    Veneer$$Code        anon$$obj.o
    0x200089fc   0x200089fc   0x0000000c   Ven    RO         2474    Veneer$$Code        anon$$obj.o
    0x20008a08   0x20008a08   0x0000000c   Ven    RO         2475    Veneer$$Code        anon$$obj.o
    0x20008a14   0x20008a14   0x0000000c   Ven    RO         2476    Veneer$$Code        anon$$obj.o
    0x20008a20   0x20008a20   0x0000000c   Ven    RO         2477    Veneer$$Code        anon$$obj.o
    0x20008a2c   0x20008a2c   0x00000018   Code   RO          162    i.DevInfo_AddService  devinfoservice.o
    0x20008a44   0x20008a44   0x00000020   Code   RO          164    i.DevInfo_SetParameter  devinfoservice.o
    0x20008a64   0x20008a64   0x00000004   Code   RO         1102    i.GAPBondMgr_LinkEst  ota.o
    0x20008a68   0x20008a68   0x000000e8   Code   RO          559    i.GAPRole_GetParameter  peripheral.o
    0x20008b50   0x20008b50   0x00000044   Code   RO          560    i.GAPRole_Init      peripheral.o
    0x20008b94   0x20008b94   0x000000f4   Code   RO          561    i.GAPRole_ProcessEvent  peripheral.o
    0x20008c88   0x20008c88   0x00000058   Code   RO          563    i.GAPRole_SendUpdateParam  peripheral.o
    0x20008ce0   0x20008ce0   0x00000214   Code   RO          564    i.GAPRole_SetParameter  peripheral.o
    0x20008ef4   0x20008ef4   0x00000038   Code   RO          565    i.GAPRole_StartDevice  peripheral.o
    0x20008f2c   0x20008f2c   0x00000020   Code   RO          566    i.GAPRole_TerminateConnection  peripheral.o
    0x20008f4c   0x20008f4c   0x00000036   Code   RO          464    i.GAP_DeviceInit    gap.o
    0x20008f82   COMPRESSED   0x00000002   PAD
    0x20008f84   0x20008f84   0x00000020   Code   RO          246    i.GATTServApp_AddService  gattservapp.o
    0x20008fa4   0x20008fa4   0x0000004c   Code   RO          252    i.GATTServApp_Init  gattservapp.o
    0x20008ff0   0x20008ff0   0x00000030   Code   RO          253    i.GATTServApp_InitCharCfg  gattservapp.o
    0x20009020   0x20009020   0x00000058   Code   RO          254    i.GATTServApp_ProcessCCCWriteReq  gattservapp.o
    0x20009078   0x20009078   0x00000038   Code   RO          256    i.GATTServApp_ProcessEvent  gattservapp.o
    0x200090b0   0x200090b0   0x00000224   Code   RO          257    i.GATTServApp_ReadAttr  gattservapp.o
    0x200092d4   0x200092d4   0x0000000e   Code   RO          258    i.GATTServApp_ReadCharCfg  gattservapp.o
    0x200092e2   COMPRESSED   0x00000002   PAD
    0x200092e4   0x200092e4   0x0000005c   Code   RO          260    i.GATTServApp_RegisterService  gattservapp.o
    0x20009340   0x20009340   0x00000038   Code   RO          261    i.GATTServApp_SendCCCUpdatedEvent  gattservapp.o
    0x20009378   0x20009378   0x0000003e   Code   RO          266    i.GATTServApp_WriteAttr  gattservapp.o
    0x200093b6   COMPRESSED   0x00000002   PAD
    0x200093b8   0x200093b8   0x0000002c   Code   RO          267    i.GATTServApp_WriteCharCfg  gattservapp.o
    0x200093e4   0x200093e4   0x00000020   Code   RO          482    i.GGS_AddService    gapgattserver.o
    0x20009404   0x20009404   0x00000088   Code   RO          488    i.GGS_SetParameter  gapgattserver.o
    0x2000948c   0x2000948c   0x00000030   Code   RO          668    i.HeartRate_HandleConnStatusCB  heartrateservice.o
    0x200094bc   0x200094bc   0x00000150   Code   RO         1979    i.LL_ENC_Decrypt0   rf.lib(patch.o)
    0x2000960c   0x2000960c   0x00000148   Code   RO         1980    i.LL_ENC_Encrypt0   rf.lib(patch.o)
    0x20009754   0x20009754   0x000005f0   Code   RO         1981    i.LL_IRQHandler1    rf.lib(patch.o)
    0x20009d44   0x20009d44   0x00000254   Code   RO         1991    i.LL_SetAdvParam1   rf.lib(patch.o)
    0x20009f98   0x20009f98   0x00000044   Code   RO         1992    i.LL_set_default_conn_params1  rf.lib(patch.o)
    0x20009fdc   0x20009fdc   0x00000178   Code   RO         1993    i.LL_slave_conn_event1  rf.lib(patch.o)
    0x2000a154   0x2000a154   0x000000a8   Code   RO         2174    i.ProgramWord       rf.lib(flash_ext.o)
    0x2000a1fc   0x2000a1fc   0x00000010   Code   RO         1945    i.SystemInit        system_armcm0.o
    0x2000a20c   0x2000a20c   0x0000007c   Code   RO         1995    i.TIM0_IRQHandler1  rf.lib(patch.o)
    0x2000a288   0x2000a288   0x0000002c   Code   RO         1146    i.WaitRTCCount      common.o
    0x2000a2b4   0x2000a2b4   0x00000018   Code   RO         2176    i.WriteFlash        rf.lib(flash_ext.o)
    0x2000a2cc   0x2000a2cc   0x00000018   Code   RO         1274    i.__NVIC_EnableIRQ  gpio.o
    0x2000a2e4   0x2000a2e4   0x00000044   Code   RO            3    i.__NVIC_SetPriority  main.o
    0x2000a328   0x2000a328   0x00000044   Code   RO         1275    i.__NVIC_SetPriority  gpio.o
    0x2000a36c   0x2000a36c   0x0000001c   Code   RO          937    i.__NVIC_SystemReset  ota_flash.o
    0x2000a388   0x2000a388   0x0000000e   Code   RO         2291    i.__scatterload_copy  mc_p.l(handlers.o)
    0x2000a396   0x2000a396   0x00000002   Code   RO         2292    i.__scatterload_null  mc_p.l(handlers.o)
    0x2000a398   0x2000a398   0x0000000e   Code   RO         2293    i.__scatterload_zeroinit  mc_p.l(handlers.o)
    0x2000a3a6   0x2000a3a6   0x00000036   Code   RO         1996    i.arry_sort         rf.lib(patch.o)
    0x2000a3dc   0x2000a3dc   0x0000004c   Code   RO         1997    i.boot_init1        rf.lib(patch.o)
    0x2000a428   0x2000a428   0x00000020   Code   RO         2178    i.check_chip_id     rf.lib(flash_ext.o)
    0x2000a448   0x2000a448   0x00000020   Code   RO         2179    i.check_chip_mAddr  rf.lib(flash_ext.o)
    0x2000a468   0x2000a468   0x00000028   Code   RO         2180    i.check_internal_bus_busy  rf.lib(flash_ext.o)
    0x2000a490   0x2000a490   0x0000006c   Code   RO         2181    i.chip_id_one_bit_hot_convter  rf.lib(flash_ext.o)
    0x2000a4fc   0x2000a4fc   0x00000014   Code   RO         1624    i.clk_gate_enable   clock.o
    0x2000a510   0x2000a510   0x0000000c   Code   RO         1626    i.clk_pclk          clock.o
    0x2000a51c   0x2000a51c   0x00000016   Code   RO         1627    i.clk_reset         clock.o
    0x2000a532   COMPRESSED   0x00000002   PAD
    0x2000a534   0x2000a534   0x00000018   Code   RO         1999    i.clock_time_rtc    rf.lib(patch.o)
    0x2000a54c   0x2000a54c   0x00000060   Code   RO         2000    i.config_RTC1       rf.lib(patch.o)
    0x2000a5ac   0x2000a5ac   0x00000134   Code   RO          165    i.devInfo_ReadAttrCB  devinfoservice.o
    0x2000a6e0   0x2000a6e0   0x00000020   Code   RO         2183    i.disable_spif_flash_write  rf.lib(flash_ext.o)
    0x2000a700   0x2000a700   0x00000020   Code   RO         2184    i.enable_spif_flash_write  rf.lib(flash_ext.o)
    0x2000a720   0x2000a720   0x0000011c   Code   RO         2001    i.enterSleepProcess1  rf.lib(patch.o)
    0x2000a83c   0x2000a83c   0x00000094   Code   RO         2002    i.finidv            rf.lib(patch.o)
    0x2000a8d0   0x2000a8d0   0x00000050   Code   RO         2185    i.flash_block64_erase  rf.lib(flash_ext.o)
    0x2000a920   0x2000a920   0x00000050   Code   RO         2186    i.flash_sector_erase  rf.lib(flash_ext.o)
    0x2000a970   0x2000a970   0x000001f4   Code   RO          567    i.gapRole_ProcessGAPMsg  peripheral.o
    0x2000ab64   0x2000ab64   0x00000080   Code   RO          568    i.gapRole_ProcessOSALMsg  peripheral.o
    0x2000abe4   0x2000abe4   0x0000005c   Code   RO          569    i.gapRole_startConnUpdate  peripheral.o
    0x2000ac40   0x2000ac40   0x0000000e   Code   RO          268    i.gattServApp_FindAuthorizeAttrCB  gattservapp.o
    0x2000ac4e   0x2000ac4e   0x0000001c   Code   RO          269    i.gattServApp_FindCharCfgItem  gattservapp.o
    0x2000ac6a   COMPRESSED   0x00000002   PAD
    0x2000ac6c   0x2000ac6c   0x00000024   Code   RO          270    i.gattServApp_FindPrepareWriteQ  gattservapp.o
    0x2000ac90   0x2000ac90   0x00000020   Code   RO          271    i.gattServApp_FindServiceCBs  gattservapp.o
    0x2000acb0   0x2000acb0   0x0000005c   Code   RO          272    i.gattServApp_HandleConnStatusCB  gattservapp.o
    0x2000ad0c   0x2000ad0c   0x00000088   Code   RO          273    i.gattServApp_ProcessExecuteWriteReq  gattservapp.o
    0x2000ad94   0x2000ad94   0x000000dc   Code   RO          274    i.gattServApp_ProcessFindByTypeValueReq  gattservapp.o
    0x2000ae70   0x2000ae70   0x00000130   Code   RO          275    i.gattServApp_ProcessMsg  gattservapp.o
    0x2000afa0   0x2000afa0   0x000000a0   Code   RO          276    i.gattServApp_ProcessPrepareWriteReq  gattservapp.o
    0x2000b040   0x2000b040   0x00000140   Code   RO          277    i.gattServApp_ProcessReadByGrpTypeReq  gattservapp.o
    0x2000b180   0x2000b180   0x00000100   Code   RO          278    i.gattServApp_ProcessReadByTypeReq  gattservapp.o
    0x2000b280   0x2000b280   0x000000a8   Code   RO          279    i.gattServApp_ProcessReadMultiReq  gattservapp.o
    0x2000b328   0x2000b328   0x00000070   Code   RO          280    i.gattServApp_ProcessWriteReq  gattservapp.o
    0x2000b398   0x2000b398   0x00000078   Code   RO          281    i.gattServApp_SetNumPrepareWrites  gattservapp.o
    0x2000b410   0x2000b410   0x00000030   Code   RO          282    i.gattServApp_WriteAttrCB  gattservapp.o
    0x2000b440   0x2000b440   0x00000028   Code   RO         2003    i.getPN23RandNumber  rf.lib(patch.o)
    0x2000b468   0x2000b468   0x000000c2   Code   RO          489    i.ggs_ReadAttrCB    gapgattserver.o
    0x2000b52a   0x2000b52a   0x00000058   Code   RO          490    i.ggs_SetAttrWPermit  gapgattserver.o
    0x2000b582   COMPRESSED   0x00000002   PAD
    0x2000b584   0x2000b584   0x000000e4   Code   RO          491    i.ggs_WriteAttrCB   gapgattserver.o
    0x2000b668   0x2000b668   0x00000040   Code   RO         1276    i.gpio_interrupt_enable  gpio.o
    0x2000b6a8   0x2000b6a8   0x00000028   Code   RO         1277    i.gpio_pin0to3_pin31to34_control  gpio.o
    0x2000b6d0   0x2000b6d0   0x00000044   Code   RO         1278    i.gpio_sleep_handler  gpio.o
    0x2000b714   0x2000b714   0x0000005c   Code   RO         1279    i.gpio_wakeup_handler  gpio.o
    0x2000b770   0x2000b770   0x0000006c   Code   RO         1280    i.gpioin_event      gpio.o
    0x2000b7dc   0x2000b7dc   0x00000024   Code   RO         1281    i.gpioin_event_pin  gpio.o
    0x2000b800   0x2000b800   0x00000018   Code   RO         1282    i.hal_GPIO_IRQHandler  gpio.o
    0x2000b818   0x2000b818   0x00000040   Code   RO         1535    i.hal_UART0_IRQHandler  uart.o
    0x2000b858   0x2000b858   0x00000010   Code   RO         1154    i.hal_cpyMem        common.o
    0x2000b868   0x2000b868   0x00000028   Code   RO         1285    i.hal_gpio_fmux     gpio.o
    0x2000b890   0x2000b890   0x00000030   Code   RO         1286    i.hal_gpio_fmux_set  gpio.o
    0x2000b8c0   0x2000b8c0   0x0000005c   Code   RO         1287    i.hal_gpio_init     gpio.o
    0x2000b91c   0x2000b91c   0x00000058   Code   RO         1296    i.hal_gpio_pin_init  gpio.o
    0x2000b974   0x2000b974   0x00000034   Code   RO         1297    i.hal_gpio_pull_set  gpio.o
    0x2000b9a8   0x2000b9a8   0x00000038   Code   RO         1298    i.hal_gpio_read     gpio.o
    0x2000b9e0   0x2000b9e0   0x00000050   Code   RO         1300    i.hal_gpio_wakeup_set  gpio.o
    0x2000ba30   0x2000ba30   0x0000006c   Code   RO         1303    i.hal_gpioin_enable  gpio.o
    0x2000ba9c   0x2000ba9c   0x0000003c   Code   RO            4    i.hal_init          main.o
    0x2000bad8   0x2000bad8   0x00000018   Code   RO         1751    i.hal_pwrmgr_RAM_retention_clr  pwrmgr.o
    0x2000baf0   0x2000baf0   0x0000001c   Code   RO         1752    i.hal_pwrmgr_RAM_retention_set  pwrmgr.o
    0x2000bb0c   0x2000bb0c   0x00000034   Code   RO         1753    i.hal_pwrmgr_init   pwrmgr.o
    0x2000bb40   0x2000bb40   0x00000054   Code   RO         1755    i.hal_pwrmgr_lock   pwrmgr.o
    0x2000bb94   0x2000bb94   0x0000003c   Code   RO         1757    i.hal_pwrmgr_register  pwrmgr.o
    0x2000bbd0   0x2000bbd0   0x00000034   Code   RO         1758    i.hal_pwrmgr_sleep_process  pwrmgr.o
    0x2000bc04   0x2000bc04   0x00000060   Code   RO         1759    i.hal_pwrmgr_unlock  pwrmgr.o
    0x2000bc64   0x2000bc64   0x00000030   Code   RO         1761    i.hal_pwrmgr_wakeup_process  pwrmgr.o
    0x2000bc94   0x2000bc94   0x00000078   Code   RO            5    i.hal_rfphy_init    main.o
    0x2000bd0c   0x2000bd0c   0x00000064   Code   RO         2005    i.hal_rom_code_ini  rf.lib(patch.o)
    0x2000bd70   0x2000bd70   0x0000008c   Code   RO         1629    i.hal_rtc_clock_config  clock.o
    0x2000bdfc   0x2000bdfc   0x000000d0   Code   RO         1162    i.hal_system_init   common.o
    0x2000becc   0x2000becc   0x00000054   Code   RO         1537    i.hal_uart_init     uart.o
    0x2000bf20   0x2000bf20   0x0000001c   Code   RO         1538    i.hal_uart_send_buff  uart.o
    0x2000bf3c   0x2000bf3c   0x00000030   Code   RO          742    i.handleConnStatusCB  ota_service.o
    0x2000bf6c   0x2000bf6c   0x00000038   Code   RO          801    i.handle_error      ota_protocol.o
    0x2000bfa4   0x2000bfa4   0x0000003c   Code   RO          802    i.handle_error_state  ota_protocol.o
    0x2000bfe0   0x2000bfe0   0x00000040   Code   RO         1002    i.hard_fault        jump_table.o
    0x2000c020   0x2000c020   0x000001dc   Code   RO         2006    i.init_config       rf.lib(patch.o)
    0x2000c1fc   0x2000c1fc   0x0000004c   Code   RO         1541    i.irq_rx_handler    uart.o
    0x2000c248   0x2000c248   0x00000080   Code   RO         1542    i.irq_tx_empty_handler  uart.o
    0x2000c2c8   0x2000c2c8   0x0000001e   Code   RO         2007    i.llAdjSlaveLatencyValue  rf.lib(patch.o)
    0x2000c2e6   COMPRESSED   0x00000002   PAD
    0x2000c2e8   0x2000c2e8   0x0000016c   Code   RO         2008    i.llProcessRxData1  rf.lib(patch.o)
    0x2000c454   0x2000c454   0x00000228   Code   RO         2009    i.llProcessSlaveControlPacket1  rf.lib(patch.o)
    0x2000c67c   0x2000c67c   0x00000284   Code   RO         2010    i.llProcessSlaveControlProcedures0  rf.lib(patch.o)
    0x2000c900   0x2000c900   0x0000006c   Code   RO         2011    i.llSetupAdv1       rf.lib(patch.o)
    0x2000c96c   0x2000c96c   0x00000194   Code   RO         2012    i.llSetupDirectedAdvEvt1  rf.lib(patch.o)
    0x2000cb00   0x2000cb00   0x00000088   Code   RO         2013    i.llSetupEncRsp0    rf.lib(patch.o)
    0x2000cb88   0x2000cb88   0x0000006c   Code   RO         2014    i.llSetupFeatureSetRsp1  rf.lib(patch.o)
    0x2000cbf4   0x2000cbf4   0x00000148   Code   RO         2015    i.llSetupNextSlaveEvent1  rf.lib(patch.o)
    0x2000cd3c   0x2000cd3c   0x00000038   Code   RO         2016    i.llSetupRejectInd1  rf.lib(patch.o)
    0x2000cd74   0x2000cd74   0x00000070   Code   RO         2017    i.llSetupTermInd1   rf.lib(patch.o)
    0x2000cde4   0x2000cde4   0x000000f8   Code   RO         2018    i.llSetupUndirectedAdvEvt1  rf.lib(patch.o)
    0x2000cedc   0x2000cedc   0x0000005c   Code   RO         2019    i.llSetupUnknownRsp1  rf.lib(patch.o)
    0x2000cf38   0x2000cf38   0x000001b8   Code   RO         2020    i.llSlaveEvt_TaskEndOk1  rf.lib(patch.o)
    0x2000d0f0   0x2000d0f0   0x00000064   Code   RO         2021    i.ll_adptive_adj_next_time  rf.lib(patch.o)
    0x2000d154   0x2000d154   0x00000098   Code   RO         2022    i.ll_adptive_smart_window  rf.lib(patch.o)
    0x2000d1ec   0x2000d1ec   0x00000090   Code   RO         2023    i.ll_hw_go1         rf.lib(patch.o)
    0x2000d27c   0x2000d27c   0x00000028   Code   RO            6    i.main              main.o
    0x2000d2a4   0x2000d2a4   0x0000022c   Code   RO         2024    i.move_to_slave_function1  rf.lib(patch.o)
    0x2000d4d0   0x2000d4d0   0x00000064   Code   RO         1050    i.osalInitTasks     osal_ota.o
    0x2000d534   0x2000d534   0x0000014c   Code   RO         2025    i.osal_pwrmgr_powerconserve1  rf.lib(patch.o)
    0x2000d680   0x2000d680   0x00000108   Code   RO         1103    i.otaApp_Init       ota.o
    0x2000d788   0x2000d788   0x00000068   Code   RO         1104    i.otaApp_ProcessEvent  ota.o
    0x2000d7f0   0x2000d7f0   0x00000038   Code   RO          803    i.otaProtocol_BootMode  ota_protocol.o
    0x2000d828   0x2000d828   0x00000018   Code   RO          804    i.otaProtocol_TimerEvt  ota_protocol.o
    0x2000d840   0x2000d840   0x00000038   Code   RO          805    i.otaProtocol_init  ota_protocol.o
    0x2000d878   0x2000d878   0x00000060   Code   RO          743    i.ota_AddService    ota_service.o
    0x2000d8d8   0x2000d8d8   0x000000c0   Code   RO         1105    i.ota_GapStateCB    ota.o
    0x2000d998   0x2000d998   0x00000058   Code   RO          744    i.ota_Notify        ota_service.o
    0x2000d9f0   0x2000d9f0   0x00000028   Code   RO          745    i.ota_ReadAttrCB    ota_service.o
    0x2000da18   0x2000da18   0x000000ec   Code   RO          746    i.ota_WriteAttrCB   ota_service.o
    0x2000db04   0x2000db04   0x0000004c   Code   RO          938    i.ota_flash_erase   ota_flash.o
    0x2000db50   0x2000db50   0x0000007c   Code   RO          939    i.ota_flash_erase_resource  ota_flash.o
    0x2000dbcc   0x2000dbcc   0x00000004   Code   RO          940    i.ota_flash_load_fct  ota_flash.o
    0x2000dbd0   0x2000dbd0   0x0000005c   Code   RO          941    i.ota_flash_read_bootsector  ota_flash.o
    0x2000dc2c   0x2000dc2c   0x0000006c   Code   RO          942    i.ota_flash_write_boot_sector  ota_flash.o
    0x2000dc98   0x2000dc98   0x0000006a   Code   RO          943    i.ota_flash_write_partition  ota_flash.o
    0x2000dd02   0x2000dd02   0x00000014   Code   RO         1082    i.ota_main          ota_main.o
    0x2000dd16   COMPRESSED   0x00000002   PAD
    0x2000dd18   0x2000dd18   0x00000068   Code   RO          806    i.partition_program  ota_protocol.o
    0x2000dd80   0x2000dd80   0x0000003c   Code   RO         1478    i.phy_printf        my_printf.o
    0x2000ddbc   0x2000ddbc   0x00000010   Code   RO         1479    i.phy_printf_init   my_printf.o
    0x2000ddcc   0x2000ddcc   0x00000104   Code   RO         1480    i.print             my_printf.o
    0x2000ded0   0x2000ded0   0x0000002c   Code   RO         1481    i.printchar         my_printf.o
    0x2000defc   0x2000defc   0x00000092   Code   RO         1482    i.printi            my_printf.o
    0x2000df8e   0x2000df8e   0x00000070   Code   RO         1483    i.prints            my_printf.o
    0x2000dffe   COMPRESSED   0x00000002   PAD
    0x2000e000   0x2000e000   0x000001e0   Code   RO          807    i.process_ctrl_cmd  ota_protocol.o
    0x2000e1e0   0x2000e1e0   0x00000058   Code   RO          808    i.process_ota_data  ota_protocol.o
    0x2000e238   0x2000e238   0x000000c8   Code   RO          809    i.process_ota_partition_data  ota_protocol.o
    0x2000e300   0x2000e300   0x0000006c   Code   RO          810    i.process_service_evt  ota_protocol.o
    0x2000e36c   0x2000e36c   0x00000060   Code   RO         2028    i.rc32k_calibration  rf.lib(patch.o)
    0x2000e3cc   0x2000e3cc   0x00000040   Code   RO         2029    i.rc32k_calibration_check  rf.lib(patch.o)
    0x2000e40c   0x2000e40c   0x00000070   Code   RO         2030    i.rc32k_tracking_check  rf.lib(patch.o)
    0x2000e47c   0x2000e47c   0x0000003c   Code   RO         2188    i.read_chip_id      rf.lib(flash_ext.o)
    0x2000e4b8   0x2000e4b8   0x00000040   Code   RO         2189    i.read_chip_mAddr   rf.lib(flash_ext.o)
    0x2000e4f8   0x2000e4f8   0x00000024   Code   RO          811    i.response          ota_protocol.o
    0x2000e51c   0x2000e51c   0x00000024   Code   RO          812    i.response_err      ota_protocol.o
    0x2000e540   0x2000e540   0x00000028   Code   RO         2031    i.rf_calibrate1     rf.lib(patch.o)
    0x2000e568   0x2000e568   0x000000dc   Code   RO         2115    i.rf_phy_ana_cfg    rf.lib(rf_phy_driver.o)
    0x2000e644   0x2000e644   0x00000110   Code   RO         2116    i.rf_phy_bb_cfg     rf.lib(rf_phy_driver.o)
    0x2000e754   0x2000e754   0x00000030   Code   RO         2130    i.rf_phy_get_pktFoot  rf.lib(rf_phy_driver.o)
    0x2000e784   0x2000e784   0x0000001c   Code   RO         2131    i.rf_phy_ini        rf.lib(rf_phy_driver.o)
    0x2000e7a0   0x2000e7a0   0x00000034   Code   RO         2132    i.rf_phy_set_txPower  rf.lib(rf_phy_driver.o)
    0x2000e7d4   0x2000e7d4   0x00000108   Code   RO         2133    i.rf_rxDcoc_cfg     rf.lib(rf_phy_driver.o)
    0x2000e8dc   0x2000e8dc   0x0000009c   Code   RO         2136    i.rf_tpCal_gen_cap_arrary  rf.lib(rf_phy_driver.o)
    0x2000e978   0x2000e978   0x00000094   Code   RO         2137    i.rf_tp_cal         rf.lib(rf_phy_driver.o)
    0x2000ea0c   0x2000ea0c   0x00000016   Code   RO          813    i.run_fct           ota_protocol.o
    0x2000ea22   COMPRESSED   0x00000002   PAD
    0x2000ea24   0x2000ea24   0x00000050   Code   RO          814    i.sector_crypto     ota_protocol.o
    0x2000ea74   0x2000ea74   0x00000014   Code   RO          815    i.start_timer       ota_protocol.o
    0x2000ea88   0x2000ea88   0x00000024   Code   RO         1164    i.subWriteReg       common.o
    0x2000eaac   0x2000eaac   0x00000068   Code   RO         1543    i.txmit_buf_polling  uart.o
    0x2000eb14   0x2000eb14   0x00000080   Code   RO         1544    i.txmit_buf_use_tx_buf  uart.o
    0x2000eb94   0x2000eb94   0x00000098   Code   RO         1545    i.uart_hw_config    uart.o
    0x2000ec2c   0x2000ec2c   0x00000054   Code   RO          816    i.validate_partition_parameter  ota_protocol.o
    0x2000ec80   0x2000ec80   0x0000002c   Code   RO         2034    i.verify_mic        rf.lib(patch.o)
    0x2000ecac   0x2000ecac   0x000001a8   Code   RO         2035    i.wakeupProcess1    rf.lib(patch.o)
    0x2000ee54   0x2000ee54   0x000000d8   Code   RO         2036    i.wakeup_init1      rf.lib(patch.o)
    0x2000ef2c   0x2000ef2c   0x00000068   Code   RO          817    i.write_app_boot_sector  ota_protocol.o
    0x2000ef94   0x2000ef94   0x00000002   Data   RO          166    .constdata          devinfoservice.o
    0x2000ef96   0x2000ef96   0x00000002   Data   RO          167    .constdata          devinfoservice.o
    0x2000ef98   0x2000ef98   0x00000002   Data   RO          168    .constdata          devinfoservice.o
    0x2000ef9a   0x2000ef9a   0x00000002   Data   RO          169    .constdata          devinfoservice.o
    0x2000ef9c   0x2000ef9c   0x00000002   Data   RO          170    .constdata          devinfoservice.o
    0x2000ef9e   0x2000ef9e   0x00000002   Data   RO          171    .constdata          devinfoservice.o
    0x2000efa0   0x2000efa0   0x00000002   Data   RO          172    .constdata          devinfoservice.o
    0x2000efa2   0x2000efa2   0x00000002   Data   RO          173    .constdata          devinfoservice.o
    0x2000efa4   0x2000efa4   0x00000002   Data   RO          174    .constdata          devinfoservice.o
    0x2000efa6   0x2000efa6   0x00000002   Data   RO          175    .constdata          devinfoservice.o
    0x2000efa8   0x2000efa8   0x00000008   Data   RO          176    .constdata          devinfoservice.o
    0x2000efb0   0x2000efb0   0x00000080   Data   RO          177    .constdata          devinfoservice.o
    0x2000f030   0x2000f030   0x00000008   Data   RO          284    .constdata          gattservapp.o
    0x2000f038   0x2000f038   0x0000000c   Data   RO          285    .constdata          gattservapp.o
    0x2000f044   0x2000f044   0x00000008   Data   RO          493    .constdata          gapgattserver.o
    0x2000f04c   0x2000f04c   0x0000000c   Data   RO          494    .constdata          gapgattserver.o
    0x2000f058   0x2000f058   0x00000002   Data   RO          674    .constdata          heartrateservice.o
    0x2000f05a   0x2000f05a   0x00000002   Data   RO          675    .constdata          heartrateservice.o
    0x2000f05c   0x2000f05c   0x00000002   Data   RO          676    .constdata          heartrateservice.o
    0x2000f05e   0x2000f05e   0x00000002   Data   RO          677    .constdata          heartrateservice.o
    0x2000f060   0x2000f060   0x00000008   Data   RO          678    .constdata          heartrateservice.o
    0x2000f068   0x2000f068   0x00000010   Data   RO          747    .constdata          ota_service.o
    0x2000f078   0x2000f078   0x00000010   Data   RO          748    .constdata          ota_service.o
    0x2000f088   0x2000f088   0x00000010   Data   RO          749    .constdata          ota_service.o
    0x2000f098   0x2000f098   0x00000010   Data   RO          750    .constdata          ota_service.o
    0x2000f0a8   0x2000f0a8   0x00000008   Data   RO          751    .constdata          ota_service.o
    0x2000f0b0   0x2000f0b0   0x0000000c   Data   RO          752    .constdata          ota_service.o
    0x2000f0bc   0x2000f0bc   0x00000024   Data   RO         1051    .constdata          osal_ota.o
    0x2000f0e0   0x2000f0e0   0x00000001   Data   RO         1052    .constdata          osal_ota.o
    0x2000f0e1   COMPRESSED   0x00000003   PAD
    0x2000f0e4   0x2000f0e4   0x00000010   Data   RO         1485    .constdata          my_printf.o
    0x2000f0f4   0x2000f0f4   0x0000000c   Data   RO         1547    .constdata          uart.o
    0x2000f100   0x2000f100   0x00000011   Data   RO         2039    .conststring        rf.lib(patch.o)
    0x2000f111   COMPRESSED   0x00000003   PAD
    0x2000f114   0x2000f114   0x00000070   Data   RO         2289    Region$$Table       anon$$obj.o
    0x2000f184   COMPRESSED   0x00000001   Data   RW          178    .data               devinfoservice.o
    0x2000f185   COMPRESSED   0x00000003   PAD
    0x2000f188   COMPRESSED   0x00000140   Data   RW          179    .data               devinfoservice.o
    0x2000f2c8   COMPRESSED   0x00000001   Data   RW          180    .data               devinfoservice.o
    0x2000f2c9   COMPRESSED   0x00000001   Data   RW          181    .data               devinfoservice.o
    0x2000f2ca   COMPRESSED   0x00000001   Data   RW          182    .data               devinfoservice.o
    0x2000f2cb   COMPRESSED   0x00000001   Data   RW          183    .data               devinfoservice.o
    0x2000f2cc   COMPRESSED   0x00000001   Data   RW          184    .data               devinfoservice.o
    0x2000f2cd   COMPRESSED   0x00000001   Data   RW          185    .data               devinfoservice.o
    0x2000f2ce   COMPRESSED   0x00000001   Data   RW          186    .data               devinfoservice.o
    0x2000f2cf   COMPRESSED   0x00000001   Data   RW          187    .data               devinfoservice.o
    0x2000f2d0   COMPRESSED   0x00000058   Data   RW          286    .data               gattservapp.o
    0x2000f328   COMPRESSED   0x00000001   Data   RW          287    .data               gattservapp.o
    0x2000f329   COMPRESSED   0x00000003   PAD
    0x2000f32c   COMPRESSED   0x00000080   Data   RW          495    .data               gapgattserver.o
    0x2000f3ac   COMPRESSED   0x00000001   Data   RW          496    .data               gapgattserver.o
    0x2000f3ad   COMPRESSED   0x00000001   Data   RW          497    .data               gapgattserver.o
    0x2000f3ae   COMPRESSED   0x00000001   Data   RW          498    .data               gapgattserver.o
    0x2000f3af   COMPRESSED   0x00000001   PAD
    0x2000f3b0   COMPRESSED   0x00000061   Data   RW          571    .data               peripheral.o
    0x2000f411   COMPRESSED   0x00000001   Data   RW          680    .data               heartrateservice.o
    0x2000f412   COMPRESSED   0x00000001   Data   RW          681    .data               heartrateservice.o
    0x2000f413   COMPRESSED   0x00000001   Data   RW          682    .data               heartrateservice.o
    0x2000f414   COMPRESSED   0x00000090   Data   RW          683    .data               heartrateservice.o
    0x2000f4a4   COMPRESSED   0x00000001   Data   RW          684    .data               heartrateservice.o
    0x2000f4a5   COMPRESSED   0x00000001   Data   RW          753    .data               ota_service.o
    0x2000f4a6   COMPRESSED   0x00000001   Data   RW          754    .data               ota_service.o
    0x2000f4a7   COMPRESSED   0x00000001   Data   RW          755    .data               ota_service.o
    0x2000f4a8   COMPRESSED   0x00000001   Data   RW          756    .data               ota_service.o
    0x2000f4a9   COMPRESSED   0x00000001   Data   RW          757    .data               ota_service.o
    0x2000f4aa   COMPRESSED   0x00000001   Data   RW          758    .data               ota_service.o
    0x2000f4ab   COMPRESSED   0x00000001   PAD
    0x2000f4ac   COMPRESSED   0x0000008c   Data   RW          759    .data               ota_service.o
    0x2000f538   COMPRESSED   0x00000001   Data   RW          820    .data               ota_protocol.o
    0x2000f539   COMPRESSED   0x00000003   PAD
    0x2000f53c   COMPRESSED   0x00000004   Data   RW         1053    .data               osal_ota.o
    0x2000f540   COMPRESSED   0x0000003a   Data   RW         1106    .data               ota.o
    0x2000f57a   COMPRESSED   0x00000002   Data   RW         1486    .data               my_printf.o
    0x2000f57c   COMPRESSED   0x00000008   Data   RW         1764    .data               pwrmgr.o
    0x2000f584   COMPRESSED   0x00000004   Data   RW         1946    .data               system_armcm0.o
    0x2000f588   COMPRESSED   0x00000004   Data   RW         2040    .data               rf.lib(patch.o)
    0x2000f58c   COMPRESSED   0x00000058   Data   RW         2041    .data               rf.lib(patch.o)
    0x2000f5e4   COMPRESSED   0x00000038   Data   RW         2140    .data               rf.lib(rf_phy_driver.o)
    0x2000f61c   COMPRESSED   0x0000000a   Data   RW         2196    .data               rf.lib(flash_ext.o)
    0x2000f626   COMPRESSED   0x00000002   PAD
    0x2000f628        -       0x00000210   Zero   RW          283    .bss                gattservapp.o
    0x2000f838        -       0x00000016   Zero   RW          492    .bss                gapgattserver.o
    0x2000f84e        -       0x0000003f   Zero   RW          570    .bss                peripheral.o
    0x2000f88d   COMPRESSED   0x00000003   PAD
    0x2000f890        -       0x0000021c   Zero   RW          819    .bss                ota_protocol.o
    0x2000faac        -       0x000001c8   Zero   RW         1306    .bss                gpio.o
    0x2000fc74        -       0x00000078   Zero   RW         1484    .bss                my_printf.o
    0x2000fcec        -       0x00000020   Zero   RW         1546    .bss                uart.o
    0x2000fd0c        -       0x00000078   Zero   RW         1763    .bss                pwrmgr.o
    0x2000fd84        -       0x000001bc   Zero   RW         2037    .bss                rf.lib(patch.o)
    0x2000ff40        -       0x00000028   Zero   RW         2139    .bss                rf.lib(rf_phy_driver.o)
    0x2000ff68        -       0x00000041   Zero   RW         2195    .bss                rf.lib(flash_ext.o)
    0x2000ffa9   COMPRESSED   0x00000007   PAD
    0x2000ffb0        -       0x00000c00   Zero   RW         1935    STACK               startup_armcm0.o



  Load Region LR_IROM2 (Base: 0x1fff4000, Size: 0x00014000, Max: 0x00014000, ABSOLUTE, COMPRESSED[0x00000284])

    Execution Region OTA_SECTOR (Exec base: 0x1fff4000, Load base: 0x1fff4000, Size: 0x00014000, Max: 0x00014000, ABSOLUTE, COMPRESSED[0x00000284])

    Exec Addr    Load Addr    Size         Type   Attr      Idx    E Section Name        Object

    0x1fff4000   COMPRESSED   0x00014000   Data   RW          821    ota_partition_buffer_area  ota_protocol.o



  Load Region LR_IROM3 (Base: 0x1fff0800, Size: 0x00000800, Max: 0x00000800, ABSOLUTE, COMPRESSED[0x0000040c])

    Execution Region JUMP_TABLE (Exec base: 0x1fff0800, Load base: 0x1fff0800, Size: 0x00000400, Max: 0x00000400, ABSOLUTE)

    Exec Addr    Load Addr    Size         Type   Attr      Idx    E Section Name        Object

    0x1fff0800   0x1fff0800   0x00000400   Data   RO         1004    jump_table_mem_area  jump_table.o


    Execution Region GOLBAL_CONFIG (Exec base: 0x1fff0c00, Load base: 0x1fff0c00, Size: 0x00000400, Max: 0x00000400, ABSOLUTE, COMPRESSED[0x0000000c])

    Exec Addr    Load Addr    Size         Type   Attr      Idx    E Section Name        Object

    0x1fff0c00   COMPRESSED   0x00000400   Data   RW         1003    global_config_area  jump_table.o



  Load Region LR_IROM4 (Base: 0x20012000, Size: 0x00000504, Max: 0x00000800, ABSOLUTE)

    Execution Region OTA_APP_LOADER (Exec base: 0x20012000, Load base: 0x20012000, Size: 0x00000504, Max: 0x00000800, ABSOLUTE)

    Exec Addr    Load Addr    Size         Type   Attr      Idx    E Section Name        Object

    0x20012000   0x20012000   0x0000000c   Ven    RO         2478    Veneer$$Code        anon$$obj.o
    0x2001200c   0x2001200c   0x0000015c   Code   RO         2229    i.LL_ENC_AES128_Encrypt_X  rf.lib(aes.o)
    0x20012168   0x20012168   0x000001ac   Code   RO         2233    i.aes_ccm_phyplus_dec  rf.lib(aes.o)
    0x20012314   0x20012314   0x0000003c   Code   RO         1859    i.crc16             crc16.o
    0x20012350   0x20012350   0x0000001c   Code   RO         2235    i.flash_load_parition  rf.lib(aes.o)
    0x2001236c   0x2001236c   0x0000000a   Code   RO         2238    i.is_crypto_app     rf.lib(aes.o)
    0x20012376   0x20012376   0x00000018   Code   RO         2240    i.xor128bit         rf.lib(aes.o)
    0x2001238e   0x2001238e   0x00000002   PAD
    0x20012390   0x20012390   0x00000028   Code   RO          818    ota_app_loader_area  ota_protocol.o
    0x200123b8   0x200123b8   0x0000012c   Code   RO          944    ota_app_loader_area  ota_flash.o
    0x200124e4   0x200124e4   0x00000020   Data   RO         1868    .constdata          crc16.o

